; .\Objects\main.SRC generated from: main.c
; COMPILER INVOKED BY:
;        C:\Keil_v5\C51\BIN\C51.EXE main.c LARGE OPTIMIZE(9,SPEED) BROWSE INCDIR(.\comm;.\fatfs;.\graphic;.\hardware) DEBUG OBJECTEXTEND PRINT(.\Listings\main.lst) SRC(.\Objects\main.SRC)

$NOMOD51

NAME	MAIN

ACC7	BIT	0E0H.7
P0M1	DATA	093H
P1M0	DATA	092H
P2M0	DATA	096H
P1M1	DATA	091H
P0	DATA	080H
P3M0	DATA	0B2H
P2M1	DATA	095H
P1	DATA	090H
P4M0	DATA	0B4H
P3M1	DATA	0B1H
P2	DATA	0A0H
P5M0	DATA	0CAH
P4M1	DATA	0B3H
P3	DATA	0B0H
WKTCH	DATA	0ABH
T0	BIT	0B0H.4
AC	BIT	0D0H.6
P6M0	DATA	0CCH
P5M1	DATA	0C9H
P4	DATA	0C0H
CLKOUT0	BIT	0B0H.5
T1	BIT	0B0H.5
P7M0	DATA	0E2H
P6M1	DATA	0CBH
P5	DATA	0C8H
ISP_TRIG	DATA	0C6H
EA	BIT	0A8H.7
CLKOUT1	BIT	0B0H.4
SPI_SS_2	BIT	0A0H.2
P6	DATA	0E8H
P7M1	DATA	0E1H
SPI_MISO	BIT	090H.4
SPI_MOSI	BIT	090H.3
CCP0	BIT	090H.1
P7	DATA	0F8H
WKTCL	DATA	0AAH
SPI_SS_4	BIT	0B0H.5
CCP1	BIT	090H.0
SPCTL	DATA	0CEH
CCP2	BIT	0B0H.7
P_SW1	DATA	0A2H
P_SW2	DATA	0BAH
SD_CS	BIT	090H.6
EADC	BIT	0A8H.5
SPI_SCLK_2	BIT	0A0H.5
DPH1	DATA	0E5H
IE	DATA	0A8H
SPI_SCLK_4	BIT	0B0H.2
IAP_CMD	DATA	0C5H
Wifi	BIT	0A0H.0
DPL1	DATA	0E4H
ADC_RES	DATA	0BDH
IP2H	DATA	0B6H
IP3H	DATA	0EEH
TA	DATA	0AEH
INTCLKO	DATA	08FH
ES	BIT	0A8H.4
PADC	BIT	0B8H.5
SPI_MISO_2	BIT	0A0H.4
SPI_MOSI_2	BIT	0A0H.3
CCP0_2	BIT	0B0H.5
IP	DATA	0B8H
laser	BIT	090H.3
CCP1_2	BIT	0B0H.6
ADCCFG	DATA	0DEH
light	BIT	090H.7
RI	BIT	098H.0
SPI_MISO_4	BIT	0B0H.3
SPI_MOSI_4	BIT	0B0H.4
CCP2_2	BIT	0B0H.7
INT0	BIT	0B0H.2
CY	BIT	0D0H.7
TI	BIT	098H.1
INT1	BIT	0B0H.3
INT2	BIT	0B0H.6
INT3	BIT	0B0H.7
INT4	BIT	0B0H.0
IAP_ADDRH	DATA	0C3H
RXD2	BIT	090H.0
ISP_CMD	DATA	0C5H
PS	BIT	0B8H.4
TXD2	BIT	090H.1
SP	DATA	081H
IAP_ADDRL	DATA	0C4H
PPCA	BIT	0B8H.7
OV	BIT	0D0H.2
LIRTRIM	DATA	09EH
CMPCR1	DATA	0E6H
CMPCR2	DATA	0E7H
ELVD	BIT	0A8H.6
P00	BIT	080H.0
SD_MISO	BIT	0B0H.3
SD_MOSI	BIT	0B0H.4
P10	BIT	090H.0
P01	BIT	080H.1
ADC_CONTR	DATA	0BCH
SBUF	DATA	099H
PCON	DATA	087H
P20	BIT	0A0H.0
P11	BIT	090H.1
P02	BIT	080H.2
ISP_ADDRH	DATA	0C3H
P30	BIT	0B0H.0
P21	BIT	0A0H.1
P12	BIT	090H.2
P03	BIT	080H.3
IAP_TPS	DATA	0F5H
P31	BIT	0B0H.1
P22	BIT	0A0H.2
P13	BIT	090H.3
SCON	DATA	098H
P32	BIT	0B0H.2
P23	BIT	0A0H.3
P14	BIT	090H.4
TMOD	DATA	089H
TCON	DATA	088H
P33	BIT	0B0H.3
P24	BIT	0A0H.4
P15	BIT	090H.5
ISP_ADDRL	DATA	0C4H
PLVD	BIT	0B8H.6
P34	BIT	0B0H.4
P25	BIT	0A0H.5
P16	BIT	090H.6
P35	BIT	0B0H.5
P26	BIT	0A0H.6
P17	BIT	090H.7
P54	BIT	0C8H.4
P36	BIT	0B0H.6
P27	BIT	0A0H.7
P55	BIT	0C8H.5
P37	BIT	0B0H.7
IE0	BIT	088H.1
IE1	BIT	088H.3
sd_cs1	BIT	090H.6
IE2	DATA	0AFH
B	DATA	0F0H
AUXR	DATA	08EH
USBADR	DATA	0FCH
IAP_CONTR	DATA	0C7H
USBDAT	DATA	0ECH
USBCLK	DATA	0DCH
ACC	DATA	0E0H
ET0	BIT	0A8H.1
ET1	BIT	0A8H.3
TF0	BIT	088H.5
TF1	BIT	088H.7
RSTCFG	DATA	0FFH
IP2	DATA	0B5H
RB8	BIT	098H.2
USBCON	DATA	0F4H
IP3	DATA	0DFH
TH0	DATA	08CH
EX0	BIT	0A8H.0
IT0	BIT	088H.0
TH1	DATA	08DH
EX1	BIT	0A8H.2
TB8	BIT	098H.3
IT1	BIT	088H.2
TH2	DATA	0D6H
T2H	DATA	0D6H
P	BIT	0D0H.0
TH3	DATA	0D4H
T3H	DATA	0D4H
SM0	BIT	098H.7
TH4	DATA	0D2H
T4H	DATA	0D2H
TL0	DATA	08AH
SM1	BIT	098H.6
ECI	BIT	090H.2
TL1	DATA	08BH
SD_CLK	BIT	0B0H.2
SM2	BIT	098H.5
TL2	DATA	0D7H
T2L	DATA	0D7H
TL3	DATA	0D5H
T3L	DATA	0D5H
PT0	BIT	0B8H.1
TL4	DATA	0D3H
T4L	DATA	0D3H
PT1	BIT	0B8H.3
RS0	BIT	0D0H.3
ISP_CONTR	DATA	0C7H
TR0	BIT	088H.4
RS1	BIT	0D0H.4
IAP_DATA	DATA	0C2H
TR1	BIT	088H.6
PX0	BIT	0B8H.0
WDT_CONTR	DATA	0C1H
PX1	BIT	0B8H.2
IRTRIM	DATA	09FH
DPH	DATA	083H
T4T3M	DATA	0D1H
OLED_SDA	BIT	0A0H.4
ADC_RESL	DATA	0BEH
DPL	DATA	082H
SPSTAT	DATA	0CDH
IPH	DATA	0B7H
ECI_2	BIT	0B0H.4
S2BUF	DATA	09BH
S3BUF	DATA	0ADH
REN	BIT	098H.4
S4BUF	DATA	085H
S2CON	DATA	09AH
DPS	DATA	0E3H
S3CON	DATA	0ACH
OLED_SCL	BIT	0A0H.5
ISP_DATA	DATA	0C2H
S4CON	DATA	084H
AUXINTIF	DATA	0EFH
SADEN	DATA	0B9H
RXD	BIT	0B0H.0
SADDR	DATA	0A9H
OLED_RES	BIT	0E8H.2
TXD	BIT	0B0H.1
B0	BIT	0F0H.0
B1	BIT	0F0H.1
IAP_TRIG	DATA	0C6H
B2	BIT	0F0H.2
SPI_SS	BIT	090H.2
Audio	BIT	0A0H.1
B3	BIT	0F0H.3
B4	BIT	0F0H.4
F0	BIT	0D0H.5
IRCBAND	DATA	09DH
B5	BIT	0F0H.5
F1	BIT	0D0H.1
INT_CLKO	DATA	08FH
B6	BIT	0F0H.6
ACC0	BIT	0E0H.0
B7	BIT	0F0H.7
ACC1	BIT	0E0H.1
flash_cs1	BIT	0B0H.5
ACC2	BIT	0E0H.2
flash_cs2	BIT	0A0H.3
ACC3	BIT	0E0H.3
PSW	DATA	0D0H
ACC4	BIT	0E0H.4
SPI_SCLK	BIT	090H.5
ACC5	BIT	0E0H.5
ACC6	BIT	0E0H.6
SPDAT	DATA	0CFH
P0M0	DATA	094H
?PR?Delay1000ms?MAIN SEGMENT CODE 
?PR?Delay100ms?MAIN  SEGMENT CODE 
?PR?Sys_Init?MAIN    SEGMENT CODE 
?PR?_Timer1_Config?MAIN                  SEGMENT CODE 
?PR?PWM_Config?MAIN  SEGMENT CODE 
?PR?___is_ascii?MAIN SEGMENT CODE 
?PR?___strlen?MAIN   SEGMENT CODE 
?XD?___strlen?MAIN   SEGMENT XDATA OVERLAYABLE 
?PR?___memset?MAIN   SEGMENT CODE 
?XD?___memset?MAIN   SEGMENT XDATA OVERLAYABLE 
?PR?checkfile?MAIN   SEGMENT CODE 
?XD?checkfile?MAIN   SEGMENT XDATA OVERLAYABLE 
?PR?_generatepath?MAIN                   SEGMENT CODE 
?XD?_generatepath?MAIN                   SEGMENT XDATA OVERLAYABLE 
?PR?_MakeBytes?MAIN  SEGMENT CODE 
?XD?_MakeBytes?MAIN  SEGMENT XDATA OVERLAYABLE 
?PR?_Get_Filenum?MAIN                    SEGMENT CODE 
?XD?_Get_Filenum?MAIN                    SEGMENT XDATA OVERLAYABLE 
?PR?_Get_Nth?MAIN    SEGMENT CODE 
?XD?_Get_Nth?MAIN    SEGMENT XDATA OVERLAYABLE 
?PR?main?MAIN        SEGMENT CODE 
?PR?timer0_ISR?MAIN  SEGMENT CODE 
?CO?MAIN             SEGMENT CODE 
?C_INITSEG           SEGMENT CODE 
?XD?MAIN             SEGMENT XDATA 
?DT?Delay1000ms?MAIN SEGMENT DATA OVERLAYABLE 
?DT?Delay100ms?MAIN  SEGMENT DATA OVERLAYABLE 
?PR?MAIN             SEGMENT CODE 
	EXTRN	CODE (OLED_Display_On)
	EXTRN	CODE (_Graphic_ClearBufferBit)
	EXTRN	CODE (Key_Scan)
	EXTRN	CODE (_Graphic_Printf)
	EXTRN	XDATA (?_Graphic_Printf?BYTE)
	EXTRN	CODE (_strlen)
	EXTRN	CODE (OLED_Init)
	EXTRN	CODE (_f_closedir)
	EXTRN	CODE (_OLED_ShowString)
	EXTRN	XDATA (?_OLED_ShowString?BYTE)
	EXTRN	CODE (_f_readdir)
	EXTRN	XDATA (?_f_readdir?BYTE)
	EXTRN	CODE (rand)
	EXTRN	CODE (Graphic_Flush)
	EXTRN	CODE (_OLED_ShowChar)
	EXTRN	XDATA (?_OLED_ShowChar?BYTE)
	EXTRN	CODE (_OLED_ColorTurn)
	EXTRN	CODE (_f_opendir)
	EXTRN	XDATA (?_f_opendir?BYTE)
	EXTRN	CODE (_Graphic_DrawBmp)
	EXTRN	XDATA (?_Graphic_DrawBmp?BYTE)
	EXTRN	CODE (_OLED_ShowNum)
	EXTRN	XDATA (?_OLED_ShowNum?BYTE)
	EXTRN	CODE (_f_lseek)
	EXTRN	CODE (_f_read)
	EXTRN	XDATA (?_f_read?BYTE)
	EXTRN	CODE (_Graphic_SetFont)
	EXTRN	CODE (OLED_Clear)
	EXTRN	CODE (_f_open)
	EXTRN	XDATA (?_f_open?BYTE)
	EXTRN	CODE (_f_mount)
	EXTRN	XDATA (?_f_mount?BYTE)
	EXTRN	CODE (_OLED_Printf)
	EXTRN	XDATA (?_OLED_Printf?BYTE)
	EXTRN	CODE (?C?CLDOPTR)
	EXTRN	CODE (?C?CSTOPTR)
	EXTRN	CODE (?C?LSTKXDATA)
	EXTRN	CODE (?C?CLDPTR)
	EXTRN	CODE (?C?LSTXDATA)
	EXTRN	CODE (?C?LSHL)
	EXTRN	CODE (?C?COPY)
	EXTRN	CODE (?C_STARTUP)
	EXTRN	CODE (?C?SIDIV)
	EXTRN	CODE (?C?ULDIV)
	EXTRN	CODE (?C?LMUL)
	EXTRN	CODE (?C?ULCMP)
	EXTRN	CODE (?C?SLCMP)
	EXTRN	CODE (?C?FCASTL)
	EXTRN	CODE (?C?FPDIV)
	EXTRN	CODE (?C?FPMUL)
	EXTRN	CODE (?C?FCASTI)
	EXTRN	CODE (?C?FPCMP3)
	EXTRN	CODE (?C?CASTF)
	PUBLIC	res2
	PUBLIC	res1
	PUBLIC	Pause_Flg
	PUBLIC	k1_
	PUBLIC	UpdateInfo
	PUBLIC	Minute
	PUBLIC	SampleRate
	PUBLIC	k
	PUBLIC	i
	PUBLIC	testfile
	PUBLIC	Process
	PUBLIC	rn
	PUBLIC	Second
	PUBLIC	UpdateKeybd
	PUBLIC	Keyleft
	PUBLIC	Play_Again_Auto
	PUBLIC	pos
	PUBLIC	tmp
	PUBLIC	wav_file
	PUBLIC	Play_Again_Manu
	PUBLIC	Keyright
	PUBLIC	res
	PUBLIC	Wave_FHD
	PUBLIC	fno
	PUBLIC	dir
	PUBLIC	Channel
	PUBLIC	B_Play
	PUBLIC	File_CurrentOffset
	PUBLIC	Vol
	PUBLIC	path
	PUBLIC	tick
	PUBLIC	PlayTime
	PUBLIC	pcm16
	PUBLIC	JmpLenth
	PUBLIC	BytePerSample
	PUBLIC	Cnt
	PUBLIC	ByteRate
	PUBLIC	bflg
	PUBLIC	Next_Flg
	PUBLIC	index
	PUBLIC	Prev_Flg
	PUBLIC	File_Num
	PUBLIC	MusicBuffer1
	PUBLIC	MusicBuffer0
	PUBLIC	SD_FS
	PUBLIC	RealData
	PUBLIC	File_Size
	PUBLIC	Play_Mode
	PUBLIC	Str
	PUBLIC	Icons
	PUBLIC	Volume
	PUBLIC	timer0_ISR
	PUBLIC	main
	PUBLIC	?_Get_Nth?BYTE
	PUBLIC	_Get_Nth
	PUBLIC	_Get_Filenum
	PUBLIC	?_MakeBytes?BYTE
	PUBLIC	_MakeBytes
	PUBLIC	_generatepath
	PUBLIC	?checkfile?BYTE
	PUBLIC	checkfile
	PUBLIC	?___memset?BYTE
	PUBLIC	___memset
	PUBLIC	___strlen
	PUBLIC	___is_ascii
	PUBLIC	PWM_Config
	PUBLIC	_Timer1_Config
	PUBLIC	Sys_Init
	PUBLIC	Delay100ms
	PUBLIC	Delay1000ms

	RSEG  ?XD?_generatepath?MAIN
?_generatepath?BYTE:
   filename?957:   DS   3

	RSEG  ?XD?_MakeBytes?MAIN
?_MakeBytes?BYTE:
       dat?1059:   DS   3
	ORG  3
     lenth?1060:   DS   1
	ORG  4
        op?1061:   DS   1
	ORG  5
       res?1062:   DS   4

	RSEG  ?XD?checkfile?MAIN
?checkfile?BYTE:
          f?854:   DS   278

	RSEG  ?XD?_Get_Nth?MAIN
?_Get_Nth?BYTE:
      path?1267:   DS   3
	ORG  3
         n?1268:   DS   1
	ORG  4
  filename?1269:   DS   3
	ORG  7
   altname?1270:   DS   3
	ORG  10
         i?1271:   DS   2
	ORG  12
     __dir?1272:   DS   46
	ORG  58
     __fno?1273:   DS   278
	ORG  336
file_index?1274:   DS   1

	RSEG  ?XD?___memset?MAIN
?___memset?BYTE:
          s?750:   DS   3
	ORG  3
      lenth?751:   DS   1
	ORG  4
      value?752:   DS   1

	RSEG  ?XD?_Get_Filenum?MAIN
?_Get_Filenum?BYTE:
      path?1163:   DS   3
	ORG  3
     __dir?1164:   DS   46
	ORG  49
     __fno?1165:   DS   278
	ORG  327
  file_cnt?1166:   DS   1

	RSEG  ?XD?___strlen?MAIN
?___strlen?BYTE:
        str?648:   DS   3

	RSEG  ?XD?MAIN
      Play_Mode:   DS   1
      File_Size:   DS   4
       RealData:   DS   1
          SD_FS:   DS   554
   MusicBuffer0:   DS   514
   MusicBuffer1:   DS   514
       File_Num:   DS   1
       Prev_Flg:   DS   1
          index:   DS   1
       Next_Flg:   DS   1
           bflg:   DS   1
       ByteRate:   DS   4
            Cnt:   DS   2
  BytePerSample:   DS   1
       JmpLenth:   DS   4
          pcm16:   DS   2
       PlayTime:   DS   4
           tick:   DS   4
           path:   DS   300
            Vol:   DS   1
File_CurrentOffset:   DS   4
         B_Play:   DS   1
        Channel:   DS   1
            dir:   DS   46
            fno:   DS   278
       Wave_FHD:   DS   44
            res:   DS   1
       Keyright:   DS   1
Play_Again_Manu:   DS   1
       wav_file:   DS   271
            tmp:   DS   1
            pos:   DS   2
Play_Again_Auto:   DS   1
        Keyleft:   DS   1
    UpdateKeybd:   DS   2
         Second:   DS   1
             rn:   DS   2
        Process:   DS   4
       testfile:   DS   541
              i:   DS   2
              k:   DS   1
     SampleRate:   DS   4
         Minute:   DS   1
     UpdateInfo:   DS   2
            k1_:   DS   1
      Pause_Flg:   DS   1
           res1:   DS   1
           res2:   DS   1

	RSEG  ?DT?Delay1000ms?MAIN
          i?040:   DS   1

	RSEG  ?DT?Delay1000ms?MAIN
          j?041:   DS   1

	RSEG  ?DT?Delay1000ms?MAIN
          k?042:   DS   1

	RSEG  ?DT?Delay100ms?MAIN
          i?143:   DS   1

	RSEG  ?DT?Delay100ms?MAIN
          j?144:   DS   1

	RSEG  ?DT?Delay100ms?MAIN
          k?145:   DS   1

	RSEG  ?CO?MAIN
?SC_0:
	DB  '1' ,':' ,000H

?SC_3:
	DB  'D' ,'i' ,'s' ,'k' ,' ' ,'E' ,'r' ,'r' ,'o' ,'r' 
	DB  ' ' ,'%' ,'b' ,'d' ,000H

?SC_18:
	DB  '1' ,':' ,'\' ,'m' ,'u' ,'s' ,'i' ,'c' ,000H

?SC_27:
	DB  'W' ,'a' ,'v' ,' ' ,'T' ,'o' ,' ' ,'P' ,'l' ,'a' 
	DB  'y' ,':' ,000H

?SC_40:
	DB  'P' ,'l' ,'a' ,'y' ,' ' ,'M' ,'o' ,'d' ,'e' ,':' 
	DB  000H

?SC_51:
	DB  '%' ,'s' ,000H

?SC_54:
	DB  'F' ,'i' ,'l' ,'e' ,' ' ,'E' ,'r' ,'r' ,'o' ,'r' 
	DB  '!' ,' ' ,'%' ,'b' ,'d' ,000H

?SC_70:
	DB  'F' ,'o' ,'r' ,'m' ,'a' ,'t' ,' ' ,'E' ,'r' ,'r' 
	DB  'o' ,'r' ,'!' ,000H

?SC_84:
	DB  'C' ,'a' ,'n' ,027H,'t' ,' ' ,'b' ,'e' ,' ' ,'P' 
	DB  'l' ,'a' ,'y' ,'e' ,'d' ,000H

?SC_100:
	DB  ' ' ,' ' ,' ' ,' ' ,' ' ,'P' ,'a' ,'u' ,'s' ,'e' 
	DB  ' ' ,' ' ,' ' ,' ' ,' ' ,' ' ,' ' ,000H

?SC_118:
	DB  'V' ,'o' ,'l' ,':' ,000H

?SC_123:
	DB  '%' ,000H

Asc0806:
	DB	000H
	DB	000H
	DB	000H
	DB	000H
	DB	000H
	DB	000H
	DB	000H
	DB	000H
	DB	000H
	DB	05FH
	DB	000H
	DB	000H
	DB	000H
	DB	000H
	DB	007H
	DB	000H
	DB	007H
	DB	000H
	DB	000H
	DB	014H
	DB	07FH
	DB	014H
	DB	07FH
	DB	014H
	DB	000H
	DB	024H
	DB	02AH
	DB	07FH
	DB	02AH
	DB	012H
	DB	000H
	DB	023H
	DB	013H
	DB	008H
	DB	064H
	DB	062H
	DB	000H
	DB	036H
	DB	049H
	DB	055H
	DB	022H
	DB	050H
	DB	000H
	DB	000H
	DB	005H
	DB	003H
	DB	000H
	DB	000H
	DB	000H
	DB	000H
	DB	01CH
	DB	022H
	DB	041H
	DB	000H
	DB	000H
	DB	000H
	DB	041H
	DB	022H
	DB	01CH
	DB	000H
	DB	000H
	DB	014H
	DB	008H
	DB	03EH
	DB	008H
	DB	014H
	DB	000H
	DB	008H
	DB	008H
	DB	03EH
	DB	008H
	DB	008H
	DB	000H
	DB	000H
	DB	050H
	DB	030H
	DB	000H
	DB	000H
	DB	000H
	DB	008H
	DB	008H
	DB	008H
	DB	008H
	DB	008H
	DB	000H
	DB	000H
	DB	060H
	DB	060H
	DB	000H
	DB	000H
	DB	000H
	DB	020H
	DB	010H
	DB	008H
	DB	004H
	DB	002H
	DB	000H
	DB	03EH
	DB	051H
	DB	049H
	DB	045H
	DB	03EH
	DB	000H
	DB	000H
	DB	042H
	DB	07FH
	DB	040H
	DB	000H
	DB	000H
	DB	042H
	DB	061H
	DB	051H
	DB	049H
	DB	046H
	DB	000H
	DB	021H
	DB	041H
	DB	045H
	DB	04BH
	DB	031H
	DB	000H
	DB	018H
	DB	014H
	DB	012H
	DB	07FH
	DB	010H
	DB	000H
	DB	027H
	DB	045H
	DB	045H
	DB	045H
	DB	039H
	DB	000H
	DB	03CH
	DB	04AH
	DB	049H
	DB	049H
	DB	030H
	DB	000H
	DB	001H
	DB	071H
	DB	009H
	DB	005H
	DB	003H
	DB	000H
	DB	036H
	DB	049H
	DB	049H
	DB	049H
	DB	036H
	DB	000H
	DB	006H
	DB	049H
	DB	049H
	DB	029H
	DB	01EH
	DB	000H
	DB	000H
	DB	036H
	DB	036H
	DB	000H
	DB	000H
	DB	000H
	DB	000H
	DB	056H
	DB	036H
	DB	000H
	DB	000H
	DB	000H
	DB	008H
	DB	014H
	DB	022H
	DB	041H
	DB	000H
	DB	000H
	DB	014H
	DB	014H
	DB	014H
	DB	014H
	DB	014H
	DB	000H
	DB	000H
	DB	041H
	DB	022H
	DB	014H
	DB	008H
	DB	000H
	DB	002H
	DB	001H
	DB	051H
	DB	009H
	DB	006H
	DB	000H
	DB	032H
	DB	049H
	DB	079H
	DB	041H
	DB	03EH
	DB	000H
	DB	07EH
	DB	011H
	DB	011H
	DB	011H
	DB	07EH
	DB	000H
	DB	07FH
	DB	049H
	DB	049H
	DB	049H
	DB	036H
	DB	000H
	DB	03EH
	DB	041H
	DB	041H
	DB	041H
	DB	022H
	DB	000H
	DB	07FH
	DB	041H
	DB	041H
	DB	022H
	DB	01CH
	DB	000H
	DB	07FH
	DB	049H
	DB	049H
	DB	049H
	DB	041H
	DB	000H
	DB	07FH
	DB	009H
	DB	009H
	DB	009H
	DB	001H
	DB	000H
	DB	03EH
	DB	041H
	DB	049H
	DB	049H
	DB	07AH
	DB	000H
	DB	07FH
	DB	008H
	DB	008H
	DB	008H
	DB	07FH
	DB	000H
	DB	000H
	DB	041H
	DB	07FH
	DB	041H
	DB	000H
	DB	000H
	DB	020H
	DB	040H
	DB	041H
	DB	03FH
	DB	001H
	DB	000H
	DB	07FH
	DB	008H
	DB	014H
	DB	022H
	DB	041H
	DB	000H
	DB	07FH
	DB	040H
	DB	040H
	DB	040H
	DB	040H
	DB	000H
	DB	07FH
	DB	002H
	DB	00CH
	DB	002H
	DB	07FH
	DB	000H
	DB	07FH
	DB	004H
	DB	008H
	DB	010H
	DB	07FH
	DB	000H
	DB	03EH
	DB	041H
	DB	041H
	DB	041H
	DB	03EH
	DB	000H
	DB	07FH
	DB	009H
	DB	009H
	DB	009H
	DB	006H
	DB	000H
	DB	03EH
	DB	041H
	DB	051H
	DB	021H
	DB	05EH
	DB	000H
	DB	07FH
	DB	009H
	DB	019H
	DB	029H
	DB	046H
	DB	000H
	DB	046H
	DB	049H
	DB	049H
	DB	049H
	DB	031H
	DB	000H
	DB	001H
	DB	001H
	DB	07FH
	DB	001H
	DB	001H
	DB	000H
	DB	03FH
	DB	040H
	DB	040H
	DB	040H
	DB	03FH
	DB	000H
	DB	01FH
	DB	020H
	DB	040H
	DB	020H
	DB	01FH
	DB	000H
	DB	03FH
	DB	040H
	DB	038H
	DB	040H
	DB	03FH
	DB	000H
	DB	063H
	DB	014H
	DB	008H
	DB	014H
	DB	063H
	DB	000H
	DB	007H
	DB	008H
	DB	070H
	DB	008H
	DB	007H
	DB	000H
	DB	061H
	DB	051H
	DB	049H
	DB	045H
	DB	043H
	DB	000H
	DB	000H
	DB	07FH
	DB	041H
	DB	041H
	DB	000H
	DB	000H
	DB	002H
	DB	004H
	DB	008H
	DB	010H
	DB	020H
	DB	000H
	DB	000H
	DB	041H
	DB	041H
	DB	07FH
	DB	000H
	DB	000H
	DB	004H
	DB	002H
	DB	001H
	DB	002H
	DB	004H
	DB	000H
	DB	040H
	DB	040H
	DB	040H
	DB	040H
	DB	040H
	DB	000H
	DB	000H
	DB	001H
	DB	002H
	DB	004H
	DB	000H
	DB	000H
	DB	020H
	DB	054H
	DB	054H
	DB	054H
	DB	078H
	DB	000H
	DB	07FH
	DB	048H
	DB	044H
	DB	044H
	DB	038H
	DB	000H
	DB	038H
	DB	044H
	DB	044H
	DB	044H
	DB	020H
	DB	000H
	DB	038H
	DB	044H
	DB	044H
	DB	048H
	DB	07FH
	DB	000H
	DB	038H
	DB	054H
	DB	054H
	DB	054H
	DB	018H
	DB	000H
	DB	008H
	DB	07EH
	DB	009H
	DB	001H
	DB	002H
	DB	000H
	DB	00CH
	DB	052H
	DB	052H
	DB	052H
	DB	03EH
	DB	000H
	DB	07FH
	DB	008H
	DB	004H
	DB	004H
	DB	078H
	DB	000H
	DB	000H
	DB	044H
	DB	07DH
	DB	040H
	DB	000H
	DB	000H
	DB	020H
	DB	040H
	DB	044H
	DB	03DH
	DB	000H
	DB	000H
	DB	07FH
	DB	010H
	DB	028H
	DB	044H
	DB	000H
	DB	000H
	DB	000H
	DB	041H
	DB	07FH
	DB	040H
	DB	000H
	DB	000H
	DB	07CH
	DB	004H
	DB	018H
	DB	004H
	DB	078H
	DB	000H
	DB	07CH
	DB	008H
	DB	004H
	DB	004H
	DB	078H
	DB	000H
	DB	038H
	DB	044H
	DB	044H
	DB	044H
	DB	038H
	DB	000H
	DB	07CH
	DB	014H
	DB	014H
	DB	014H
	DB	008H
	DB	000H
	DB	008H
	DB	014H
	DB	014H
	DB	018H
	DB	07CH
	DB	000H
	DB	07CH
	DB	008H
	DB	004H
	DB	004H
	DB	008H
	DB	000H
	DB	048H
	DB	054H
	DB	054H
	DB	054H
	DB	020H
	DB	000H
	DB	004H
	DB	03FH
	DB	044H
	DB	040H
	DB	020H
	DB	000H
	DB	03CH
	DB	040H
	DB	040H
	DB	020H
	DB	07CH
	DB	000H
	DB	01CH
	DB	020H
	DB	040H
	DB	020H
	DB	01CH
	DB	000H
	DB	03CH
	DB	040H
	DB	030H
	DB	040H
	DB	03CH
	DB	000H
	DB	044H
	DB	028H
	DB	010H
	DB	028H
	DB	044H
	DB	000H
	DB	00CH
	DB	050H
	DB	050H
	DB	050H
	DB	03CH
	DB	000H
	DB	044H
	DB	064H
	DB	054H
	DB	04CH
	DB	044H
	DB	000H
	DB	000H
	DB	008H
	DB	036H
	DB	041H
	DB	000H
	DB	000H
	DB	000H
	DB	000H
	DB	07FH
	DB	000H
	DB	000H
	DB	000H
	DB	000H
	DB	041H
	DB	036H
	DB	008H
	DB	000H
	DB	000H
	DB	010H
	DB	008H
	DB	008H
	DB	010H
	DB	008H
	DB	000H
	DB	078H
	DB	046H
	DB	041H
	DB	046H
	DB	078H

Asc1608:
	DB	000H
	DB	000H
	DB	000H
	DB	000H
	DB	000H
	DB	000H
	DB	000H
	DB	000H
	DB	000H
	DB	000H
	DB	000H
	DB	000H
	DB	000H
	DB	000H
	DB	000H
	DB	000H
	DB	000H
	DB	000H
	DB	000H
	DB	0F8H
	DB	000H
	DB	000H
	DB	000H
	DB	000H
	DB	000H
	DB	000H
	DB	000H
	DB	033H
	DB	030H
	DB	000H
	DB	000H
	DB	000H
	DB	000H
	DB	010H
	DB	00CH
	DB	006H
	DB	010H
	DB	00CH
	DB	006H
	DB	000H
	DB	000H
	DB	000H
	DB	000H
	DB	000H
	DB	000H
	DB	000H
	DB	000H
	DB	000H
	DB	040H
	DB	0C0H
	DB	078H
	DB	040H
	DB	0C0H
	DB	078H
	DB	040H
	DB	000H
	DB	004H
	DB	03FH
	DB	004H
	DB	004H
	DB	03FH
	DB	004H
	DB	004H
	DB	000H
	DB	000H
	DB	070H
	DB	088H
	DB	0FCH
	DB	008H
	DB	030H
	DB	000H
	DB	000H
	DB	000H
	DB	018H
	DB	020H
	DB	0FFH
	DB	021H
	DB	01EH
	DB	000H
	DB	000H
	DB	0F0H
	DB	008H
	DB	0F0H
	DB	000H
	DB	0E0H
	DB	018H
	DB	000H
	DB	000H
	DB	000H
	DB	021H
	DB	01CH
	DB	003H
	DB	01EH
	DB	021H
	DB	01EH
	DB	000H
	DB	000H
	DB	0F0H
	DB	008H
	DB	088H
	DB	070H
	DB	000H
	DB	000H
	DB	000H
	DB	01EH
	DB	021H
	DB	023H
	DB	024H
	DB	019H
	DB	027H
	DB	021H
	DB	010H
	DB	010H
	DB	016H
	DB	00EH
	DB	000H
	DB	000H
	DB	000H
	DB	000H
	DB	000H
	DB	000H
	DB	000H
	DB	000H
	DB	000H
	DB	000H
	DB	000H
	DB	000H
	DB	000H
	DB	000H
	DB	000H
	DB	000H
	DB	0E0H
	DB	018H
	DB	004H
	DB	002H
	DB	000H
	DB	000H
	DB	000H
	DB	000H
	DB	007H
	DB	018H
	DB	020H
	DB	040H
	DB	000H
	DB	000H
	DB	002H
	DB	004H
	DB	018H
	DB	0E0H
	DB	000H
	DB	000H
	DB	000H
	DB	000H
	DB	040H
	DB	020H
	DB	018H
	DB	007H
	DB	000H
	DB	000H
	DB	000H
	DB	040H
	DB	040H
	DB	080H
	DB	0F0H
	DB	080H
	DB	040H
	DB	040H
	DB	000H
	DB	002H
	DB	002H
	DB	001H
	DB	00FH
	DB	001H
	DB	002H
	DB	002H
	DB	000H
	DB	000H
	DB	000H
	DB	000H
	DB	0F0H
	DB	000H
	DB	000H
	DB	000H
	DB	000H
	DB	001H
	DB	001H
	DB	001H
	DB	01FH
	DB	001H
	DB	001H
	DB	001H
	DB	000H
	DB	000H
	DB	000H
	DB	000H
	DB	000H
	DB	000H
	DB	000H
	DB	000H
	DB	000H
	DB	080H
	DB	0B0H
	DB	070H
	DB	000H
	DB	000H
	DB	000H
	DB	000H
	DB	000H
	DB	000H
	DB	000H
	DB	000H
	DB	000H
	DB	000H
	DB	000H
	DB	000H
	DB	000H
	DB	000H
	DB	001H
	DB	001H
	DB	001H
	DB	001H
	DB	001H
	DB	001H
	DB	001H
	DB	000H
	DB	000H
	DB	000H
	DB	000H
	DB	000H
	DB	000H
	DB	000H
	DB	000H
	DB	000H
	DB	030H
	DB	030H
	DB	000H
	DB	000H
	DB	000H
	DB	000H
	DB	000H
	DB	000H
	DB	000H
	DB	000H
	DB	000H
	DB	080H
	DB	060H
	DB	018H
	DB	004H
	DB	000H
	DB	060H
	DB	018H
	DB	006H
	DB	001H
	DB	000H
	DB	000H
	DB	000H
	DB	000H
	DB	0E0H
	DB	010H
	DB	008H
	DB	008H
	DB	010H
	DB	0E0H
	DB	000H
	DB	000H
	DB	00FH
	DB	010H
	DB	020H
	DB	020H
	DB	010H
	DB	00FH
	DB	000H
	DB	000H
	DB	010H
	DB	010H
	DB	0F8H
	DB	000H
	DB	000H
	DB	000H
	DB	000H
	DB	000H
	DB	020H
	DB	020H
	DB	03FH
	DB	020H
	DB	020H
	DB	000H
	DB	000H
	DB	000H
	DB	070H
	DB	008H
	DB	008H
	DB	008H
	DB	088H
	DB	070H
	DB	000H
	DB	000H
	DB	030H
	DB	028H
	DB	024H
	DB	022H
	DB	021H
	DB	030H
	DB	000H
	DB	000H
	DB	030H
	DB	008H
	DB	088H
	DB	088H
	DB	048H
	DB	030H
	DB	000H
	DB	000H
	DB	018H
	DB	020H
	DB	020H
	DB	020H
	DB	011H
	DB	00EH
	DB	000H
	DB	000H
	DB	000H
	DB	0C0H
	DB	020H
	DB	010H
	DB	0F8H
	DB	000H
	DB	000H
	DB	000H
	DB	007H
	DB	004H
	DB	024H
	DB	024H
	DB	03FH
	DB	024H
	DB	000H
	DB	000H
	DB	0F8H
	DB	008H
	DB	088H
	DB	088H
	DB	008H
	DB	008H
	DB	000H
	DB	000H
	DB	019H
	DB	021H
	DB	020H
	DB	020H
	DB	011H
	DB	00EH
	DB	000H
	DB	000H
	DB	0E0H
	DB	010H
	DB	088H
	DB	088H
	DB	018H
	DB	000H
	DB	000H
	DB	000H
	DB	00FH
	DB	011H
	DB	020H
	DB	020H
	DB	011H
	DB	00EH
	DB	000H
	DB	000H
	DB	038H
	DB	008H
	DB	008H
	DB	0C8H
	DB	038H
	DB	008H
	DB	000H
	DB	000H
	DB	000H
	DB	000H
	DB	03FH
	DB	000H
	DB	000H
	DB	000H
	DB	000H
	DB	000H
	DB	070H
	DB	088H
	DB	008H
	DB	008H
	DB	088H
	DB	070H
	DB	000H
	DB	000H
	DB	01CH
	DB	022H
	DB	021H
	DB	021H
	DB	022H
	DB	01CH
	DB	000H
	DB	000H
	DB	0E0H
	DB	010H
	DB	008H
	DB	008H
	DB	010H
	DB	0E0H
	DB	000H
	DB	000H
	DB	000H
	DB	031H
	DB	022H
	DB	022H
	DB	011H
	DB	00FH
	DB	000H
	DB	000H
	DB	000H
	DB	000H
	DB	0C0H
	DB	0C0H
	DB	000H
	DB	000H
	DB	000H
	DB	000H
	DB	000H
	DB	000H
	DB	030H
	DB	030H
	DB	000H
	DB	000H
	DB	000H
	DB	000H
	DB	000H
	DB	000H
	DB	080H
	DB	000H
	DB	000H
	DB	000H
	DB	000H
	DB	000H
	DB	000H
	DB	080H
	DB	060H
	DB	000H
	DB	000H
	DB	000H
	DB	000H
	DB	000H
	DB	000H
	DB	080H
	DB	040H
	DB	020H
	DB	010H
	DB	008H
	DB	000H
	DB	000H
	DB	001H
	DB	002H
	DB	004H
	DB	008H
	DB	010H
	DB	020H
	DB	000H
	DB	040H
	DB	040H
	DB	040H
	DB	040H
	DB	040H
	DB	040H
	DB	040H
	DB	000H
	DB	004H
	DB	004H
	DB	004H
	DB	004H
	DB	004H
	DB	004H
	DB	004H
	DB	000H
	DB	000H
	DB	008H
	DB	010H
	DB	020H
	DB	040H
	DB	080H
	DB	000H
	DB	000H
	DB	000H
	DB	020H
	DB	010H
	DB	008H
	DB	004H
	DB	002H
	DB	001H
	DB	000H
	DB	000H
	DB	070H
	DB	048H
	DB	008H
	DB	008H
	DB	008H
	DB	0F0H
	DB	000H
	DB	000H
	DB	000H
	DB	000H
	DB	030H
	DB	036H
	DB	001H
	DB	000H
	DB	000H
	DB	0C0H
	DB	030H
	DB	0C8H
	DB	028H
	DB	0E8H
	DB	010H
	DB	0E0H
	DB	000H
	DB	007H
	DB	018H
	DB	027H
	DB	024H
	DB	023H
	DB	014H
	DB	00BH
	DB	000H
	DB	000H
	DB	000H
	DB	0C0H
	DB	038H
	DB	0E0H
	DB	000H
	DB	000H
	DB	000H
	DB	020H
	DB	03CH
	DB	023H
	DB	002H
	DB	002H
	DB	027H
	DB	038H
	DB	020H
	DB	008H
	DB	0F8H
	DB	088H
	DB	088H
	DB	088H
	DB	070H
	DB	000H
	DB	000H
	DB	020H
	DB	03FH
	DB	020H
	DB	020H
	DB	020H
	DB	011H
	DB	00EH
	DB	000H
	DB	0C0H
	DB	030H
	DB	008H
	DB	008H
	DB	008H
	DB	008H
	DB	038H
	DB	000H
	DB	007H
	DB	018H
	DB	020H
	DB	020H
	DB	020H
	DB	010H
	DB	008H
	DB	000H
	DB	008H
	DB	0F8H
	DB	008H
	DB	008H
	DB	008H
	DB	010H
	DB	0E0H
	DB	000H
	DB	020H
	DB	03FH
	DB	020H
	DB	020H
	DB	020H
	DB	010H
	DB	00FH
	DB	000H
	DB	008H
	DB	0F8H
	DB	088H
	DB	088H
	DB	0E8H
	DB	008H
	DB	010H
	DB	000H
	DB	020H
	DB	03FH
	DB	020H
	DB	020H
	DB	023H
	DB	020H
	DB	018H
	DB	000H
	DB	008H
	DB	0F8H
	DB	088H
	DB	088H
	DB	0E8H
	DB	008H
	DB	010H
	DB	000H
	DB	020H
	DB	03FH
	DB	020H
	DB	000H
	DB	003H
	DB	000H
	DB	000H
	DB	000H
	DB	0C0H
	DB	030H
	DB	008H
	DB	008H
	DB	008H
	DB	038H
	DB	000H
	DB	000H
	DB	007H
	DB	018H
	DB	020H
	DB	020H
	DB	022H
	DB	01EH
	DB	002H
	DB	000H
	DB	008H
	DB	0F8H
	DB	008H
	DB	000H
	DB	000H
	DB	008H
	DB	0F8H
	DB	008H
	DB	020H
	DB	03FH
	DB	021H
	DB	001H
	DB	001H
	DB	021H
	DB	03FH
	DB	020H
	DB	000H
	DB	008H
	DB	008H
	DB	0F8H
	DB	008H
	DB	008H
	DB	000H
	DB	000H
	DB	000H
	DB	020H
	DB	020H
	DB	03FH
	DB	020H
	DB	020H
	DB	000H
	DB	000H
	DB	000H
	DB	000H
	DB	008H
	DB	008H
	DB	0F8H
	DB	008H
	DB	008H
	DB	000H
	DB	0C0H
	DB	080H
	DB	080H
	DB	080H
	DB	07FH
	DB	000H
	DB	000H
	DB	000H
	DB	008H
	DB	0F8H
	DB	088H
	DB	0C0H
	DB	028H
	DB	018H
	DB	008H
	DB	000H
	DB	020H
	DB	03FH
	DB	020H
	DB	001H
	DB	026H
	DB	038H
	DB	020H
	DB	000H
	DB	008H
	DB	0F8H
	DB	008H
	DB	000H
	DB	000H
	DB	000H
	DB	000H
	DB	000H
	DB	020H
	DB	03FH
	DB	020H
	DB	020H
	DB	020H
	DB	020H
	DB	030H
	DB	000H
	DB	008H
	DB	0F8H
	DB	0F8H
	DB	000H
	DB	0F8H
	DB	0F8H
	DB	008H
	DB	000H
	DB	020H
	DB	03FH
	DB	000H
	DB	03FH
	DB	000H
	DB	03FH
	DB	020H
	DB	000H
	DB	008H
	DB	0F8H
	DB	030H
	DB	0C0H
	DB	000H
	DB	008H
	DB	0F8H
	DB	008H
	DB	020H
	DB	03FH
	DB	020H
	DB	000H
	DB	007H
	DB	018H
	DB	03FH
	DB	000H
	DB	0E0H
	DB	010H
	DB	008H
	DB	008H
	DB	008H
	DB	010H
	DB	0E0H
	DB	000H
	DB	00FH
	DB	010H
	DB	020H
	DB	020H
	DB	020H
	DB	010H
	DB	00FH
	DB	000H
	DB	008H
	DB	0F8H
	DB	008H
	DB	008H
	DB	008H
	DB	008H
	DB	0F0H
	DB	000H
	DB	020H
	DB	03FH
	DB	021H
	DB	001H
	DB	001H
	DB	001H
	DB	000H
	DB	000H
	DB	0E0H
	DB	010H
	DB	008H
	DB	008H
	DB	008H
	DB	010H
	DB	0E0H
	DB	000H
	DB	00FH
	DB	018H
	DB	024H
	DB	024H
	DB	038H
	DB	050H
	DB	04FH
	DB	000H
	DB	008H
	DB	0F8H
	DB	088H
	DB	088H
	DB	088H
	DB	088H
	DB	070H
	DB	000H
	DB	020H
	DB	03FH
	DB	020H
	DB	000H
	DB	003H
	DB	00CH
	DB	030H
	DB	020H
	DB	000H
	DB	070H
	DB	088H
	DB	008H
	DB	008H
	DB	008H
	DB	038H
	DB	000H
	DB	000H
	DB	038H
	DB	020H
	DB	021H
	DB	021H
	DB	022H
	DB	01CH
	DB	000H
	DB	018H
	DB	008H
	DB	008H
	DB	0F8H
	DB	008H
	DB	008H
	DB	018H
	DB	000H
	DB	000H
	DB	000H
	DB	020H
	DB	03FH
	DB	020H
	DB	000H
	DB	000H
	DB	000H
	DB	008H
	DB	0F8H
	DB	008H
	DB	000H
	DB	000H
	DB	008H
	DB	0F8H
	DB	008H
	DB	000H
	DB	01FH
	DB	020H
	DB	020H
	DB	020H
	DB	020H
	DB	01FH
	DB	000H
	DB	008H
	DB	078H
	DB	088H
	DB	000H
	DB	000H
	DB	0C8H
	DB	038H
	DB	008H
	DB	000H
	DB	000H
	DB	007H
	DB	038H
	DB	00EH
	DB	001H
	DB	000H
	DB	000H
	DB	0F8H
	DB	008H
	DB	000H
	DB	0F8H
	DB	000H
	DB	008H
	DB	0F8H
	DB	000H
	DB	003H
	DB	03CH
	DB	007H
	DB	000H
	DB	007H
	DB	03CH
	DB	003H
	DB	000H
	DB	008H
	DB	018H
	DB	068H
	DB	080H
	DB	080H
	DB	068H
	DB	018H
	DB	008H
	DB	020H
	DB	030H
	DB	02CH
	DB	003H
	DB	003H
	DB	02CH
	DB	030H
	DB	020H
	DB	008H
	DB	038H
	DB	0C8H
	DB	000H
	DB	0C8H
	DB	038H
	DB	008H
	DB	000H
	DB	000H
	DB	000H
	DB	020H
	DB	03FH
	DB	020H
	DB	000H
	DB	000H
	DB	000H
	DB	010H
	DB	008H
	DB	008H
	DB	008H
	DB	0C8H
	DB	038H
	DB	008H
	DB	000H
	DB	020H
	DB	038H
	DB	026H
	DB	021H
	DB	020H
	DB	020H
	DB	018H
	DB	000H
	DB	000H
	DB	000H
	DB	000H
	DB	0FEH
	DB	002H
	DB	002H
	DB	002H
	DB	000H
	DB	000H
	DB	000H
	DB	000H
	DB	07FH
	DB	040H
	DB	040H
	DB	040H
	DB	000H
	DB	000H
	DB	00CH
	DB	030H
	DB	0C0H
	DB	000H
	DB	000H
	DB	000H
	DB	000H
	DB	000H
	DB	000H
	DB	000H
	DB	001H
	DB	006H
	DB	038H
	DB	0C0H
	DB	000H
	DB	000H
	DB	002H
	DB	002H
	DB	002H
	DB	0FEH
	DB	000H
	DB	000H
	DB	000H
	DB	000H
	DB	040H
	DB	040H
	DB	040H
	DB	07FH
	DB	000H
	DB	000H
	DB	000H
	DB	000H
	DB	000H
	DB	004H
	DB	002H
	DB	002H
	DB	002H
	DB	004H
	DB	000H
	DB	000H
	DB	000H
	DB	000H
	DB	000H
	DB	000H
	DB	000H
	DB	000H
	DB	000H
	DB	000H
	DB	000H
	DB	000H
	DB	000H
	DB	000H
	DB	000H
	DB	000H
	DB	000H
	DB	080H
	DB	080H
	DB	080H
	DB	080H
	DB	080H
	DB	080H
	DB	080H
	DB	080H
	DB	000H
	DB	002H
	DB	002H
	DB	004H
	DB	000H
	DB	000H
	DB	000H
	DB	000H
	DB	000H
	DB	000H
	DB	000H
	DB	000H
	DB	000H
	DB	000H
	DB	000H
	DB	000H
	DB	000H
	DB	000H
	DB	080H
	DB	080H
	DB	080H
	DB	080H
	DB	000H
	DB	000H
	DB	000H
	DB	019H
	DB	024H
	DB	022H
	DB	022H
	DB	022H
	DB	03FH
	DB	020H
	DB	008H
	DB	0F8H
	DB	000H
	DB	080H
	DB	080H
	DB	000H
	DB	000H
	DB	000H
	DB	000H
	DB	03FH
	DB	011H
	DB	020H
	DB	020H
	DB	011H
	DB	00EH
	DB	000H
	DB	000H
	DB	000H
	DB	000H
	DB	080H
	DB	080H
	DB	080H
	DB	000H
	DB	000H
	DB	000H
	DB	00EH
	DB	011H
	DB	020H
	DB	020H
	DB	020H
	DB	011H
	DB	000H
	DB	000H
	DB	000H
	DB	000H
	DB	080H
	DB	080H
	DB	088H
	DB	0F8H
	DB	000H
	DB	000H
	DB	00EH
	DB	011H
	DB	020H
	DB	020H
	DB	010H
	DB	03FH
	DB	020H
	DB	000H
	DB	000H
	DB	080H
	DB	080H
	DB	080H
	DB	080H
	DB	000H
	DB	000H
	DB	000H
	DB	01FH
	DB	022H
	DB	022H
	DB	022H
	DB	022H
	DB	013H
	DB	000H
	DB	000H
	DB	080H
	DB	080H
	DB	0F0H
	DB	088H
	DB	088H
	DB	088H
	DB	018H
	DB	000H
	DB	020H
	DB	020H
	DB	03FH
	DB	020H
	DB	020H
	DB	000H
	DB	000H
	DB	000H
	DB	000H
	DB	080H
	DB	080H
	DB	080H
	DB	080H
	DB	080H
	DB	000H
	DB	000H
	DB	06BH
	DB	094H
	DB	094H
	DB	094H
	DB	093H
	DB	060H
	DB	000H
	DB	008H
	DB	0F8H
	DB	000H
	DB	080H
	DB	080H
	DB	080H
	DB	000H
	DB	000H
	DB	020H
	DB	03FH
	DB	021H
	DB	000H
	DB	000H
	DB	020H
	DB	03FH
	DB	020H
	DB	000H
	DB	080H
	DB	098H
	DB	098H
	DB	000H
	DB	000H
	DB	000H
	DB	000H
	DB	000H
	DB	020H
	DB	020H
	DB	03FH
	DB	020H
	DB	020H
	DB	000H
	DB	000H
	DB	000H
	DB	000H
	DB	000H
	DB	080H
	DB	098H
	DB	098H
	DB	000H
	DB	000H
	DB	000H
	DB	0C0H
	DB	080H
	DB	080H
	DB	080H
	DB	07FH
	DB	000H
	DB	000H
	DB	008H
	DB	0F8H
	DB	000H
	DB	000H
	DB	080H
	DB	080H
	DB	080H
	DB	000H
	DB	020H
	DB	03FH
	DB	024H
	DB	002H
	DB	02DH
	DB	030H
	DB	020H
	DB	000H
	DB	000H
	DB	008H
	DB	008H
	DB	0F8H
	DB	000H
	DB	000H
	DB	000H
	DB	000H
	DB	000H
	DB	020H
	DB	020H
	DB	03FH
	DB	020H
	DB	020H
	DB	000H
	DB	000H
	DB	080H
	DB	080H
	DB	080H
	DB	080H
	DB	080H
	DB	080H
	DB	080H
	DB	000H
	DB	020H
	DB	03FH
	DB	020H
	DB	000H
	DB	03FH
	DB	020H
	DB	000H
	DB	03FH
	DB	080H
	DB	080H
	DB	000H
	DB	080H
	DB	080H
	DB	080H
	DB	000H
	DB	000H
	DB	020H
	DB	03FH
	DB	021H
	DB	000H
	DB	000H
	DB	020H
	DB	03FH
	DB	020H
	DB	000H
	DB	000H
	DB	080H
	DB	080H
	DB	080H
	DB	080H
	DB	000H
	DB	000H
	DB	000H
	DB	01FH
	DB	020H
	DB	020H
	DB	020H
	DB	020H
	DB	01FH
	DB	000H
	DB	080H
	DB	080H
	DB	000H
	DB	080H
	DB	080H
	DB	000H
	DB	000H
	DB	000H
	DB	080H
	DB	0FFH
	DB	0A1H
	DB	020H
	DB	020H
	DB	011H
	DB	00EH
	DB	000H
	DB	000H
	DB	000H
	DB	000H
	DB	080H
	DB	080H
	DB	080H
	DB	080H
	DB	000H
	DB	000H
	DB	00EH
	DB	011H
	DB	020H
	DB	020H
	DB	0A0H
	DB	0FFH
	DB	080H
	DB	080H
	DB	080H
	DB	080H
	DB	000H
	DB	080H
	DB	080H
	DB	080H
	DB	000H
	DB	020H
	DB	020H
	DB	03FH
	DB	021H
	DB	020H
	DB	000H
	DB	001H
	DB	000H
	DB	000H
	DB	000H
	DB	080H
	DB	080H
	DB	080H
	DB	080H
	DB	080H
	DB	000H
	DB	000H
	DB	033H
	DB	024H
	DB	024H
	DB	024H
	DB	024H
	DB	019H
	DB	000H
	DB	000H
	DB	080H
	DB	080H
	DB	0E0H
	DB	080H
	DB	080H
	DB	000H
	DB	000H
	DB	000H
	DB	000H
	DB	000H
	DB	01FH
	DB	020H
	DB	020H
	DB	000H
	DB	000H
	DB	080H
	DB	080H
	DB	000H
	DB	000H
	DB	000H
	DB	080H
	DB	080H
	DB	000H
	DB	000H
	DB	01FH
	DB	020H
	DB	020H
	DB	020H
	DB	010H
	DB	03FH
	DB	020H
	DB	080H
	DB	080H
	DB	080H
	DB	000H
	DB	000H
	DB	080H
	DB	080H
	DB	080H
	DB	000H
	DB	001H
	DB	00EH
	DB	030H
	DB	008H
	DB	006H
	DB	001H
	DB	000H
	DB	080H
	DB	080H
	DB	000H
	DB	080H
	DB	000H
	DB	080H
	DB	080H
	DB	080H
	DB	00FH
	DB	030H
	DB	00CH
	DB	003H
	DB	00CH
	DB	030H
	DB	00FH
	DB	000H
	DB	000H
	DB	080H
	DB	080H
	DB	000H
	DB	080H
	DB	080H
	DB	080H
	DB	000H
	DB	000H
	DB	020H
	DB	031H
	DB	02EH
	DB	00EH
	DB	031H
	DB	020H
	DB	000H
	DB	080H
	DB	080H
	DB	080H
	DB	000H
	DB	000H
	DB	080H
	DB	080H
	DB	080H
	DB	080H
	DB	081H
	DB	08EH
	DB	070H
	DB	018H
	DB	006H
	DB	001H
	DB	000H
	DB	000H
	DB	080H
	DB	080H
	DB	080H
	DB	080H
	DB	080H
	DB	080H
	DB	000H
	DB	000H
	DB	021H
	DB	030H
	DB	02CH
	DB	022H
	DB	021H
	DB	030H
	DB	000H
	DB	000H
	DB	000H
	DB	000H
	DB	000H
	DB	080H
	DB	07CH
	DB	002H
	DB	002H
	DB	000H
	DB	000H
	DB	000H
	DB	000H
	DB	000H
	DB	03FH
	DB	040H
	DB	040H
	DB	000H
	DB	000H
	DB	000H
	DB	000H
	DB	0FFH
	DB	000H
	DB	000H
	DB	000H
	DB	000H
	DB	000H
	DB	000H
	DB	000H
	DB	0FFH
	DB	000H
	DB	000H
	DB	000H
	DB	000H
	DB	002H
	DB	002H
	DB	07CH
	DB	080H
	DB	000H
	DB	000H
	DB	000H
	DB	000H
	DB	040H
	DB	040H
	DB	03FH
	DB	000H
	DB	000H
	DB	000H
	DB	000H
	DB	000H
	DB	006H
	DB	001H
	DB	001H
	DB	002H
	DB	002H
	DB	004H
	DB	004H
	DB	000H
	DB	000H
	DB	000H
	DB	000H
	DB	000H
	DB	000H
	DB	000H
	DB	000H

Volume:
	DB	000H
	DB	000H
	DB	000H
	DB	000H
	DB	000H
	DB	000H
	DB	000H
	DB	000H
	DB	000H
	DB	000H
	DB	000H
	DB	000H
	DB	000H
	DB	000H
	DB	000H
	DB	000H
	DB	000H
	DB	000H
	DB	000H
	DB	000H
	DB	000H
	DB	000H
	DB	000H
	DB	000H
	DB	000H
	DB	000H
	DB	000H
	DB	000H
	DB	000H
	DB	000H
	DB	000H
	DB	000H
	DB	000H
	DB	000H
	DB	000H
	DB	000H
	DB	000H
	DB	000H
	DB	000H
	DB	000H
	DB	000H
	DB	000H
	DB	000H
	DB	000H
	DB	000H
	DB	000H
	DB	000H
	DB	000H
	DB	000H
	DB	000H
	DB	000H
	DB	000H
	DB	000H
	DB	000H
	DB	000H
	DB	000H
	DB	000H
	DB	000H
	DB	000H
	DB	000H
	DB	000H
	DB	000H
	DB	000H
	DB	000H
	DB	000H
	DB	000H
	DB	000H
	DB	000H
	DB	000H
	DB	000H
	DB	000H
	DB	000H
	DB	000H
	DB	000H
	DB	000H
	DB	000H
	DB	000H
	DB	000H
	DB	000H
	DB	000H
	DB	000H
	DB	000H
	DB	000H
	DB	000H
	DB	000H
	DB	000H
	DB	000H
	DB	000H
	DB	000H
	DB	000H
	DB	000H
	DB	000H
	DB	000H
	DB	000H
	DB	000H
	DB	000H
	DB	000H
	DB	000H
	DB	000H
	DB	000H
	DB	000H
	DB	000H
	DB	000H
	DB	000H
	DB	000H
	DB	000H
	DB	000H
	DB	000H
	DB	000H
	DB	000H
	DB	000H
	DB	000H
	DB	000H
	DB	000H
	DB	000H
	DB	000H
	DB	000H
	DB	000H
	DB	000H
	DB	000H
	DB	000H
	DB	000H
	DB	000H
	DB	000H
	DB	000H
	DB	000H
	DB	000H
	DB	000H
	DB	000H
	DB	000H
	DB	000H
	DB	000H
	DB	000H
	DB	000H
	DB	000H
	DB	000H
	DB	000H
	DB	000H
	DB	000H
	DB	000H
	DB	000H
	DB	000H
	DB	000H
	DB	000H
	DB	000H
	DB	000H
	DB	000H
	DB	000H
	DB	000H
	DB	000H
	DB	000H
	DB	000H
	DB	000H
	DB	000H
	DB	000H
	DB	000H
	DB	000H
	DB	000H
	DB	000H
	DB	000H
	DB	000H
	DB	000H
	DB	000H
	DB	000H
	DB	000H
	DB	000H
	DB	000H
	DB	000H
	DB	000H
	DB	000H
	DB	000H
	DB	000H
	DB	000H
	DB	000H
	DB	000H
	DB	000H
	DB	000H
	DB	000H
	DB	000H
	DB	000H
	DB	000H
	DB	000H
	DB	000H
	DB	000H
	DB	000H
	DB	000H
	DB	000H
	DB	000H
	DB	000H
	DB	000H
	DB	000H
	DB	000H
	DB	000H
	DB	000H
	DB	000H
	DB	000H
	DB	000H
	DB	000H
	DB	000H
	DB	000H
	DB	000H
	DB	000H
	DB	000H
	DB	000H
	DB	000H
	DB	000H
	DB	000H
	DB	000H
	DB	000H
	DB	000H
	DB	000H
	DB	000H
	DB	000H
	DB	000H
	DB	000H
	DB	000H
	DB	000H
	DB	000H
	DB	000H
	DB	000H
	DB	000H
	DB	000H
	DB	000H
	DB	000H
	DB	000H
	DB	000H
	DB	000H
	DB	000H
	DB	000H
	DB	000H
	DB	000H
	DB	000H
	DB	000H
	DB	000H
	DB	000H
	DB	000H
	DB	000H
	DB	000H
	DB	000H
	DB	000H
	DB	000H
	DB	000H
	DB	000H
	DB	000H
	DB	000H
	DB	000H
	DB	000H
	DB	000H
	DB	000H
	DB	000H
	DB	000H
	DB	000H
	DB	000H
	DB	000H
	DB	000H
	DB	000H
	DB	000H
	DB	000H
	DB	000H
	DB	000H
	DB	000H
	DB	000H
	DB	000H
	DB	000H
	DB	000H
	DB	000H
	DB	001H
	DB	001H
	DB	001H
	DB	001H
	DB	001H
	DB	001H
	DB	001H
	DB	001H
	DB	001H
	DB	001H
	DB	002H
	DB	002H
	DB	002H
	DB	002H
	DB	002H
	DB	002H
	DB	002H
	DB	002H
	DB	002H
	DB	002H
	DB	003H
	DB	003H
	DB	003H
	DB	003H
	DB	003H
	DB	003H
	DB	003H
	DB	003H
	DB	003H
	DB	003H
	DB	004H
	DB	004H
	DB	004H
	DB	004H
	DB	004H
	DB	004H
	DB	004H
	DB	004H
	DB	004H
	DB	004H
	DB	005H
	DB	005H
	DB	005H
	DB	005H
	DB	005H
	DB	005H
	DB	005H
	DB	005H
	DB	005H
	DB	005H
	DB	006H
	DB	006H
	DB	006H
	DB	006H
	DB	006H
	DB	006H
	DB	006H
	DB	006H
	DB	006H
	DB	006H
	DB	007H
	DB	007H
	DB	007H
	DB	007H
	DB	007H
	DB	007H
	DB	007H
	DB	007H
	DB	007H
	DB	007H
	DB	008H
	DB	008H
	DB	008H
	DB	008H
	DB	008H
	DB	008H
	DB	008H
	DB	008H
	DB	008H
	DB	008H
	DB	009H
	DB	009H
	DB	009H
	DB	009H
	DB	009H
	DB	009H
	DB	009H
	DB	009H
	DB	009H
	DB	009H
	DB	00AH
	DB	00AH
	DB	00AH
	DB	00AH
	DB	00AH
	DB	00AH
	DB	00AH
	DB	00AH
	DB	00AH
	DB	00AH
	DB	00BH
	DB	00BH
	DB	00BH
	DB	00BH
	DB	00BH
	DB	00BH
	DB	00BH
	DB	00BH
	DB	00BH
	DB	00BH
	DB	00CH
	DB	00CH
	DB	00CH
	DB	00CH
	DB	00CH
	DB	00CH
	DB	00CH
	DB	00CH
	DB	00CH
	DB	00CH
	DB	00DH
	DB	00DH
	DB	00DH
	DB	00DH
	DB	00DH
	DB	00DH
	DB	00DH
	DB	00DH
	DB	00DH
	DB	00DH
	DB	00EH
	DB	00EH
	DB	00EH
	DB	00EH
	DB	00EH
	DB	00EH
	DB	00EH
	DB	00EH
	DB	00EH
	DB	00EH
	DB	00FH
	DB	00FH
	DB	00FH
	DB	00FH
	DB	00FH
	DB	00FH
	DB	00FH
	DB	00FH
	DB	00FH
	DB	00FH
	DB	010H
	DB	010H
	DB	010H
	DB	010H
	DB	010H
	DB	010H
	DB	010H
	DB	010H
	DB	010H
	DB	010H
	DB	011H
	DB	011H
	DB	011H
	DB	011H
	DB	011H
	DB	011H
	DB	011H
	DB	011H
	DB	011H
	DB	011H
	DB	012H
	DB	012H
	DB	012H
	DB	012H
	DB	012H
	DB	012H
	DB	012H
	DB	012H
	DB	012H
	DB	012H
	DB	013H
	DB	013H
	DB	013H
	DB	013H
	DB	013H
	DB	013H
	DB	013H
	DB	013H
	DB	013H
	DB	013H
	DB	014H
	DB	014H
	DB	014H
	DB	014H
	DB	014H
	DB	014H
	DB	014H
	DB	014H
	DB	014H
	DB	014H
	DB	015H
	DB	015H
	DB	015H
	DB	015H
	DB	015H
	DB	015H
	DB	015H
	DB	015H
	DB	015H
	DB	015H
	DB	016H
	DB	016H
	DB	016H
	DB	016H
	DB	016H
	DB	016H
	DB	016H
	DB	016H
	DB	016H
	DB	016H
	DB	017H
	DB	017H
	DB	017H
	DB	017H
	DB	017H
	DB	017H
	DB	017H
	DB	017H
	DB	017H
	DB	017H
	DB	018H
	DB	018H
	DB	018H
	DB	018H
	DB	018H
	DB	018H
	DB	018H
	DB	018H
	DB	018H
	DB	018H
	DB	019H
	DB	019H
	DB	019H
	DB	019H
	DB	019H
	DB	019H
	DB	000H
	DB	000H
	DB	000H
	DB	000H
	DB	000H
	DB	001H
	DB	001H
	DB	001H
	DB	001H
	DB	001H
	DB	002H
	DB	002H
	DB	002H
	DB	002H
	DB	002H
	DB	003H
	DB	003H
	DB	003H
	DB	003H
	DB	003H
	DB	004H
	DB	004H
	DB	004H
	DB	004H
	DB	004H
	DB	005H
	DB	005H
	DB	005H
	DB	005H
	DB	005H
	DB	006H
	DB	006H
	DB	006H
	DB	006H
	DB	006H
	DB	007H
	DB	007H
	DB	007H
	DB	007H
	DB	007H
	DB	008H
	DB	008H
	DB	008H
	DB	008H
	DB	008H
	DB	009H
	DB	009H
	DB	009H
	DB	009H
	DB	009H
	DB	00AH
	DB	00AH
	DB	00AH
	DB	00AH
	DB	00AH
	DB	00BH
	DB	00BH
	DB	00BH
	DB	00BH
	DB	00BH
	DB	00CH
	DB	00CH
	DB	00CH
	DB	00CH
	DB	00CH
	DB	00DH
	DB	00DH
	DB	00DH
	DB	00DH
	DB	00DH
	DB	00EH
	DB	00EH
	DB	00EH
	DB	00EH
	DB	00EH
	DB	00FH
	DB	00FH
	DB	00FH
	DB	00FH
	DB	00FH
	DB	010H
	DB	010H
	DB	010H
	DB	010H
	DB	010H
	DB	011H
	DB	011H
	DB	011H
	DB	011H
	DB	011H
	DB	012H
	DB	012H
	DB	012H
	DB	012H
	DB	012H
	DB	013H
	DB	013H
	DB	013H
	DB	013H
	DB	013H
	DB	014H
	DB	014H
	DB	014H
	DB	014H
	DB	014H
	DB	015H
	DB	015H
	DB	015H
	DB	015H
	DB	015H
	DB	016H
	DB	016H
	DB	016H
	DB	016H
	DB	016H
	DB	017H
	DB	017H
	DB	017H
	DB	017H
	DB	017H
	DB	018H
	DB	018H
	DB	018H
	DB	018H
	DB	018H
	DB	019H
	DB	019H
	DB	019H
	DB	019H
	DB	019H
	DB	01AH
	DB	01AH
	DB	01AH
	DB	01AH
	DB	01AH
	DB	01BH
	DB	01BH
	DB	01BH
	DB	01BH
	DB	01BH
	DB	01CH
	DB	01CH
	DB	01CH
	DB	01CH
	DB	01CH
	DB	01DH
	DB	01DH
	DB	01DH
	DB	01DH
	DB	01DH
	DB	01EH
	DB	01EH
	DB	01EH
	DB	01EH
	DB	01EH
	DB	01FH
	DB	01FH
	DB	01FH
	DB	01FH
	DB	01FH
	DB	020H
	DB	020H
	DB	020H
	DB	020H
	DB	020H
	DB	021H
	DB	021H
	DB	021H
	DB	021H
	DB	021H
	DB	022H
	DB	022H
	DB	022H
	DB	022H
	DB	022H
	DB	023H
	DB	023H
	DB	023H
	DB	023H
	DB	023H
	DB	024H
	DB	024H
	DB	024H
	DB	024H
	DB	024H
	DB	025H
	DB	025H
	DB	025H
	DB	025H
	DB	025H
	DB	026H
	DB	026H
	DB	026H
	DB	026H
	DB	026H
	DB	027H
	DB	027H
	DB	027H
	DB	027H
	DB	027H
	DB	028H
	DB	028H
	DB	028H
	DB	028H
	DB	028H
	DB	029H
	DB	029H
	DB	029H
	DB	029H
	DB	029H
	DB	02AH
	DB	02AH
	DB	02AH
	DB	02AH
	DB	02AH
	DB	02BH
	DB	02BH
	DB	02BH
	DB	02BH
	DB	02BH
	DB	02CH
	DB	02CH
	DB	02CH
	DB	02CH
	DB	02CH
	DB	02DH
	DB	02DH
	DB	02DH
	DB	02DH
	DB	02DH
	DB	02EH
	DB	02EH
	DB	02EH
	DB	02EH
	DB	02EH
	DB	02FH
	DB	02FH
	DB	02FH
	DB	02FH
	DB	02FH
	DB	030H
	DB	030H
	DB	030H
	DB	030H
	DB	030H
	DB	031H
	DB	031H
	DB	031H
	DB	031H
	DB	031H
	DB	032H
	DB	032H
	DB	032H
	DB	032H
	DB	032H
	DB	033H
	DB	000H
	DB	000H
	DB	000H
	DB	000H
	DB	001H
	DB	001H
	DB	001H
	DB	002H
	DB	002H
	DB	002H
	DB	003H
	DB	003H
	DB	003H
	DB	003H
	DB	004H
	DB	004H
	DB	004H
	DB	005H
	DB	005H
	DB	005H
	DB	006H
	DB	006H
	DB	006H
	DB	006H
	DB	007H
	DB	007H
	DB	007H
	DB	008H
	DB	008H
	DB	008H
	DB	009H
	DB	009H
	DB	009H
	DB	009H
	DB	00AH
	DB	00AH
	DB	00AH
	DB	00BH
	DB	00BH
	DB	00BH
	DB	00CH
	DB	00CH
	DB	00CH
	DB	00CH
	DB	00DH
	DB	00DH
	DB	00DH
	DB	00EH
	DB	00EH
	DB	00EH
	DB	00FH
	DB	00FH
	DB	00FH
	DB	00FH
	DB	010H
	DB	010H
	DB	010H
	DB	011H
	DB	011H
	DB	011H
	DB	012H
	DB	012H
	DB	012H
	DB	012H
	DB	013H
	DB	013H
	DB	013H
	DB	014H
	DB	014H
	DB	014H
	DB	015H
	DB	015H
	DB	015H
	DB	015H
	DB	016H
	DB	016H
	DB	016H
	DB	017H
	DB	017H
	DB	017H
	DB	018H
	DB	018H
	DB	018H
	DB	018H
	DB	019H
	DB	019H
	DB	019H
	DB	01AH
	DB	01AH
	DB	01AH
	DB	01BH
	DB	01BH
	DB	01BH
	DB	01BH
	DB	01CH
	DB	01CH
	DB	01CH
	DB	01DH
	DB	01DH
	DB	01DH
	DB	01EH
	DB	01EH
	DB	01EH
	DB	01EH
	DB	01FH
	DB	01FH
	DB	01FH
	DB	020H
	DB	020H
	DB	020H
	DB	021H
	DB	021H
	DB	021H
	DB	021H
	DB	022H
	DB	022H
	DB	022H
	DB	023H
	DB	023H
	DB	023H
	DB	024H
	DB	024H
	DB	024H
	DB	024H
	DB	025H
	DB	025H
	DB	025H
	DB	026H
	DB	026H
	DB	026H
	DB	027H
	DB	027H
	DB	027H
	DB	027H
	DB	028H
	DB	028H
	DB	028H
	DB	029H
	DB	029H
	DB	029H
	DB	02AH
	DB	02AH
	DB	02AH
	DB	02AH
	DB	02BH
	DB	02BH
	DB	02BH
	DB	02CH
	DB	02CH
	DB	02CH
	DB	02DH
	DB	02DH
	DB	02DH
	DB	02DH
	DB	02EH
	DB	02EH
	DB	02EH
	DB	02FH
	DB	02FH
	DB	02FH
	DB	030H
	DB	030H
	DB	030H
	DB	030H
	DB	031H
	DB	031H
	DB	031H
	DB	032H
	DB	032H
	DB	032H
	DB	033H
	DB	033H
	DB	033H
	DB	033H
	DB	034H
	DB	034H
	DB	034H
	DB	035H
	DB	035H
	DB	035H
	DB	036H
	DB	036H
	DB	036H
	DB	036H
	DB	037H
	DB	037H
	DB	037H
	DB	038H
	DB	038H
	DB	038H
	DB	039H
	DB	039H
	DB	039H
	DB	039H
	DB	03AH
	DB	03AH
	DB	03AH
	DB	03BH
	DB	03BH
	DB	03BH
	DB	03CH
	DB	03CH
	DB	03CH
	DB	03CH
	DB	03DH
	DB	03DH
	DB	03DH
	DB	03EH
	DB	03EH
	DB	03EH
	DB	03FH
	DB	03FH
	DB	03FH
	DB	03FH
	DB	040H
	DB	040H
	DB	040H
	DB	041H
	DB	041H
	DB	041H
	DB	042H
	DB	042H
	DB	042H
	DB	042H
	DB	043H
	DB	043H
	DB	043H
	DB	044H
	DB	044H
	DB	044H
	DB	045H
	DB	045H
	DB	045H
	DB	045H
	DB	046H
	DB	046H
	DB	046H
	DB	047H
	DB	047H
	DB	047H
	DB	048H
	DB	048H
	DB	048H
	DB	048H
	DB	049H
	DB	049H
	DB	049H
	DB	04AH
	DB	04AH
	DB	04AH
	DB	04BH
	DB	04BH
	DB	04BH
	DB	04BH
	DB	04CH
	DB	04CH
	DB	000H
	DB	000H
	DB	000H
	DB	001H
	DB	001H
	DB	002H
	DB	002H
	DB	002H
	DB	003H
	DB	003H
	DB	004H
	DB	004H
	DB	004H
	DB	005H
	DB	005H
	DB	006H
	DB	006H
	DB	006H
	DB	007H
	DB	007H
	DB	008H
	DB	008H
	DB	008H
	DB	009H
	DB	009H
	DB	00AH
	DB	00AH
	DB	00AH
	DB	00BH
	DB	00BH
	DB	00CH
	DB	00CH
	DB	00CH
	DB	00DH
	DB	00DH
	DB	00EH
	DB	00EH
	DB	00EH
	DB	00FH
	DB	00FH
	DB	010H
	DB	010H
	DB	010H
	DB	011H
	DB	011H
	DB	012H
	DB	012H
	DB	012H
	DB	013H
	DB	013H
	DB	014H
	DB	014H
	DB	014H
	DB	015H
	DB	015H
	DB	016H
	DB	016H
	DB	016H
	DB	017H
	DB	017H
	DB	018H
	DB	018H
	DB	018H
	DB	019H
	DB	019H
	DB	01AH
	DB	01AH
	DB	01AH
	DB	01BH
	DB	01BH
	DB	01CH
	DB	01CH
	DB	01CH
	DB	01DH
	DB	01DH
	DB	01EH
	DB	01EH
	DB	01EH
	DB	01FH
	DB	01FH
	DB	020H
	DB	020H
	DB	020H
	DB	021H
	DB	021H
	DB	022H
	DB	022H
	DB	022H
	DB	023H
	DB	023H
	DB	024H
	DB	024H
	DB	024H
	DB	025H
	DB	025H
	DB	026H
	DB	026H
	DB	026H
	DB	027H
	DB	027H
	DB	028H
	DB	028H
	DB	028H
	DB	029H
	DB	029H
	DB	02AH
	DB	02AH
	DB	02AH
	DB	02BH
	DB	02BH
	DB	02CH
	DB	02CH
	DB	02CH
	DB	02DH
	DB	02DH
	DB	02EH
	DB	02EH
	DB	02EH
	DB	02FH
	DB	02FH
	DB	030H
	DB	030H
	DB	030H
	DB	031H
	DB	031H
	DB	032H
	DB	032H
	DB	032H
	DB	033H
	DB	033H
	DB	034H
	DB	034H
	DB	034H
	DB	035H
	DB	035H
	DB	036H
	DB	036H
	DB	036H
	DB	037H
	DB	037H
	DB	038H
	DB	038H
	DB	038H
	DB	039H
	DB	039H
	DB	03AH
	DB	03AH
	DB	03AH
	DB	03BH
	DB	03BH
	DB	03CH
	DB	03CH
	DB	03CH
	DB	03DH
	DB	03DH
	DB	03EH
	DB	03EH
	DB	03EH
	DB	03FH
	DB	03FH
	DB	040H
	DB	040H
	DB	040H
	DB	041H
	DB	041H
	DB	042H
	DB	042H
	DB	042H
	DB	043H
	DB	043H
	DB	044H
	DB	044H
	DB	044H
	DB	045H
	DB	045H
	DB	046H
	DB	046H
	DB	046H
	DB	047H
	DB	047H
	DB	048H
	DB	048H
	DB	048H
	DB	049H
	DB	049H
	DB	04AH
	DB	04AH
	DB	04AH
	DB	04BH
	DB	04BH
	DB	04CH
	DB	04CH
	DB	04CH
	DB	04DH
	DB	04DH
	DB	04EH
	DB	04EH
	DB	04EH
	DB	04FH
	DB	04FH
	DB	050H
	DB	050H
	DB	050H
	DB	051H
	DB	051H
	DB	052H
	DB	052H
	DB	052H
	DB	053H
	DB	053H
	DB	054H
	DB	054H
	DB	054H
	DB	055H
	DB	055H
	DB	056H
	DB	056H
	DB	056H
	DB	057H
	DB	057H
	DB	058H
	DB	058H
	DB	058H
	DB	059H
	DB	059H
	DB	05AH
	DB	05AH
	DB	05AH
	DB	05BH
	DB	05BH
	DB	05CH
	DB	05CH
	DB	05CH
	DB	05DH
	DB	05DH
	DB	05EH
	DB	05EH
	DB	05EH
	DB	05FH
	DB	05FH
	DB	060H
	DB	060H
	DB	060H
	DB	061H
	DB	061H
	DB	062H
	DB	062H
	DB	062H
	DB	063H
	DB	063H
	DB	064H
	DB	064H
	DB	064H
	DB	065H
	DB	065H
	DB	066H
	DB	000H
	DB	000H
	DB	001H
	DB	001H
	DB	002H
	DB	002H
	DB	003H
	DB	003H
	DB	004H
	DB	004H
	DB	005H
	DB	005H
	DB	006H
	DB	006H
	DB	007H
	DB	007H
	DB	008H
	DB	008H
	DB	009H
	DB	009H
	DB	00AH
	DB	00AH
	DB	00BH
	DB	00BH
	DB	00CH
	DB	00CH
	DB	00DH
	DB	00DH
	DB	00EH
	DB	00EH
	DB	00FH
	DB	00FH
	DB	010H
	DB	010H
	DB	011H
	DB	011H
	DB	012H
	DB	012H
	DB	013H
	DB	013H
	DB	014H
	DB	014H
	DB	015H
	DB	015H
	DB	016H
	DB	016H
	DB	017H
	DB	017H
	DB	018H
	DB	018H
	DB	019H
	DB	019H
	DB	01AH
	DB	01AH
	DB	01BH
	DB	01BH
	DB	01CH
	DB	01CH
	DB	01DH
	DB	01DH
	DB	01EH
	DB	01EH
	DB	01FH
	DB	01FH
	DB	020H
	DB	020H
	DB	021H
	DB	021H
	DB	022H
	DB	022H
	DB	023H
	DB	023H
	DB	024H
	DB	024H
	DB	025H
	DB	025H
	DB	026H
	DB	026H
	DB	027H
	DB	027H
	DB	028H
	DB	028H
	DB	029H
	DB	029H
	DB	02AH
	DB	02AH
	DB	02BH
	DB	02BH
	DB	02CH
	DB	02CH
	DB	02DH
	DB	02DH
	DB	02EH
	DB	02EH
	DB	02FH
	DB	02FH
	DB	030H
	DB	030H
	DB	031H
	DB	031H
	DB	032H
	DB	032H
	DB	033H
	DB	033H
	DB	034H
	DB	034H
	DB	035H
	DB	035H
	DB	036H
	DB	036H
	DB	037H
	DB	037H
	DB	038H
	DB	038H
	DB	039H
	DB	039H
	DB	03AH
	DB	03AH
	DB	03BH
	DB	03BH
	DB	03CH
	DB	03CH
	DB	03DH
	DB	03DH
	DB	03EH
	DB	03EH
	DB	03FH
	DB	03FH
	DB	040H
	DB	040H
	DB	041H
	DB	041H
	DB	042H
	DB	042H
	DB	043H
	DB	043H
	DB	044H
	DB	044H
	DB	045H
	DB	045H
	DB	046H
	DB	046H
	DB	047H
	DB	047H
	DB	048H
	DB	048H
	DB	049H
	DB	049H
	DB	04AH
	DB	04AH
	DB	04BH
	DB	04BH
	DB	04CH
	DB	04CH
	DB	04DH
	DB	04DH
	DB	04EH
	DB	04EH
	DB	04FH
	DB	04FH
	DB	050H
	DB	050H
	DB	051H
	DB	051H
	DB	052H
	DB	052H
	DB	053H
	DB	053H
	DB	054H
	DB	054H
	DB	055H
	DB	055H
	DB	056H
	DB	056H
	DB	057H
	DB	057H
	DB	058H
	DB	058H
	DB	059H
	DB	059H
	DB	05AH
	DB	05AH
	DB	05BH
	DB	05BH
	DB	05CH
	DB	05CH
	DB	05DH
	DB	05DH
	DB	05EH
	DB	05EH
	DB	05FH
	DB	05FH
	DB	060H
	DB	060H
	DB	061H
	DB	061H
	DB	062H
	DB	062H
	DB	063H
	DB	063H
	DB	064H
	DB	064H
	DB	065H
	DB	065H
	DB	066H
	DB	066H
	DB	067H
	DB	067H
	DB	068H
	DB	068H
	DB	069H
	DB	069H
	DB	06AH
	DB	06AH
	DB	06BH
	DB	06BH
	DB	06CH
	DB	06CH
	DB	06DH
	DB	06DH
	DB	06EH
	DB	06EH
	DB	06FH
	DB	06FH
	DB	070H
	DB	070H
	DB	071H
	DB	071H
	DB	072H
	DB	072H
	DB	073H
	DB	073H
	DB	074H
	DB	074H
	DB	075H
	DB	075H
	DB	076H
	DB	076H
	DB	077H
	DB	077H
	DB	078H
	DB	078H
	DB	079H
	DB	079H
	DB	07AH
	DB	07AH
	DB	07BH
	DB	07BH
	DB	07CH
	DB	07CH
	DB	07DH
	DB	07DH
	DB	07EH
	DB	07EH
	DB	07FH
	DB	07FH
	DB	000H
	DB	000H
	DB	001H
	DB	001H
	DB	002H
	DB	003H
	DB	003H
	DB	004H
	DB	004H
	DB	005H
	DB	006H
	DB	006H
	DB	007H
	DB	007H
	DB	008H
	DB	009H
	DB	009H
	DB	00AH
	DB	00AH
	DB	00BH
	DB	00CH
	DB	00CH
	DB	00DH
	DB	00DH
	DB	00EH
	DB	00FH
	DB	00FH
	DB	010H
	DB	010H
	DB	011H
	DB	012H
	DB	012H
	DB	013H
	DB	013H
	DB	014H
	DB	015H
	DB	015H
	DB	016H
	DB	016H
	DB	017H
	DB	018H
	DB	018H
	DB	019H
	DB	019H
	DB	01AH
	DB	01BH
	DB	01BH
	DB	01CH
	DB	01CH
	DB	01DH
	DB	01EH
	DB	01EH
	DB	01FH
	DB	01FH
	DB	020H
	DB	021H
	DB	021H
	DB	022H
	DB	022H
	DB	023H
	DB	024H
	DB	024H
	DB	025H
	DB	025H
	DB	026H
	DB	027H
	DB	027H
	DB	028H
	DB	028H
	DB	029H
	DB	02AH
	DB	02AH
	DB	02BH
	DB	02BH
	DB	02CH
	DB	02DH
	DB	02DH
	DB	02EH
	DB	02EH
	DB	02FH
	DB	030H
	DB	030H
	DB	031H
	DB	031H
	DB	032H
	DB	033H
	DB	033H
	DB	034H
	DB	034H
	DB	035H
	DB	036H
	DB	036H
	DB	037H
	DB	037H
	DB	038H
	DB	039H
	DB	039H
	DB	03AH
	DB	03AH
	DB	03BH
	DB	03CH
	DB	03CH
	DB	03DH
	DB	03DH
	DB	03EH
	DB	03FH
	DB	03FH
	DB	040H
	DB	040H
	DB	041H
	DB	042H
	DB	042H
	DB	043H
	DB	043H
	DB	044H
	DB	045H
	DB	045H
	DB	046H
	DB	046H
	DB	047H
	DB	048H
	DB	048H
	DB	049H
	DB	049H
	DB	04AH
	DB	04BH
	DB	04BH
	DB	04CH
	DB	04CH
	DB	04DH
	DB	04EH
	DB	04EH
	DB	04FH
	DB	04FH
	DB	050H
	DB	051H
	DB	051H
	DB	052H
	DB	052H
	DB	053H
	DB	054H
	DB	054H
	DB	055H
	DB	055H
	DB	056H
	DB	057H
	DB	057H
	DB	058H
	DB	058H
	DB	059H
	DB	05AH
	DB	05AH
	DB	05BH
	DB	05BH
	DB	05CH
	DB	05DH
	DB	05DH
	DB	05EH
	DB	05EH
	DB	05FH
	DB	060H
	DB	060H
	DB	061H
	DB	061H
	DB	062H
	DB	063H
	DB	063H
	DB	064H
	DB	064H
	DB	065H
	DB	066H
	DB	066H
	DB	067H
	DB	067H
	DB	068H
	DB	069H
	DB	069H
	DB	06AH
	DB	06AH
	DB	06BH
	DB	06CH
	DB	06CH
	DB	06DH
	DB	06DH
	DB	06EH
	DB	06FH
	DB	06FH
	DB	070H
	DB	070H
	DB	071H
	DB	072H
	DB	072H
	DB	073H
	DB	073H
	DB	074H
	DB	075H
	DB	075H
	DB	076H
	DB	076H
	DB	077H
	DB	078H
	DB	078H
	DB	079H
	DB	079H
	DB	07AH
	DB	07BH
	DB	07BH
	DB	07CH
	DB	07CH
	DB	07DH
	DB	07EH
	DB	07EH
	DB	07FH
	DB	07FH
	DB	080H
	DB	081H
	DB	081H
	DB	082H
	DB	082H
	DB	083H
	DB	084H
	DB	084H
	DB	085H
	DB	085H
	DB	086H
	DB	087H
	DB	087H
	DB	088H
	DB	088H
	DB	089H
	DB	08AH
	DB	08AH
	DB	08BH
	DB	08BH
	DB	08CH
	DB	08DH
	DB	08DH
	DB	08EH
	DB	08EH
	DB	08FH
	DB	090H
	DB	090H
	DB	091H
	DB	091H
	DB	092H
	DB	093H
	DB	093H
	DB	094H
	DB	094H
	DB	095H
	DB	096H
	DB	096H
	DB	097H
	DB	097H
	DB	098H
	DB	099H
	DB	000H
	DB	000H
	DB	001H
	DB	002H
	DB	002H
	DB	003H
	DB	004H
	DB	004H
	DB	005H
	DB	006H
	DB	007H
	DB	007H
	DB	008H
	DB	009H
	DB	009H
	DB	00AH
	DB	00BH
	DB	00BH
	DB	00CH
	DB	00DH
	DB	00EH
	DB	00EH
	DB	00FH
	DB	010H
	DB	010H
	DB	011H
	DB	012H
	DB	012H
	DB	013H
	DB	014H
	DB	015H
	DB	015H
	DB	016H
	DB	017H
	DB	017H
	DB	018H
	DB	019H
	DB	019H
	DB	01AH
	DB	01BH
	DB	01CH
	DB	01CH
	DB	01DH
	DB	01EH
	DB	01EH
	DB	01FH
	DB	020H
	DB	020H
	DB	021H
	DB	022H
	DB	023H
	DB	023H
	DB	024H
	DB	025H
	DB	025H
	DB	026H
	DB	027H
	DB	027H
	DB	028H
	DB	029H
	DB	02AH
	DB	02AH
	DB	02BH
	DB	02CH
	DB	02CH
	DB	02DH
	DB	02EH
	DB	02EH
	DB	02FH
	DB	030H
	DB	031H
	DB	031H
	DB	032H
	DB	033H
	DB	033H
	DB	034H
	DB	035H
	DB	035H
	DB	036H
	DB	037H
	DB	038H
	DB	038H
	DB	039H
	DB	03AH
	DB	03AH
	DB	03BH
	DB	03CH
	DB	03CH
	DB	03DH
	DB	03EH
	DB	03FH
	DB	03FH
	DB	040H
	DB	041H
	DB	041H
	DB	042H
	DB	043H
	DB	043H
	DB	044H
	DB	045H
	DB	046H
	DB	046H
	DB	047H
	DB	048H
	DB	048H
	DB	049H
	DB	04AH
	DB	04AH
	DB	04BH
	DB	04CH
	DB	04DH
	DB	04DH
	DB	04EH
	DB	04FH
	DB	04FH
	DB	050H
	DB	051H
	DB	051H
	DB	052H
	DB	053H
	DB	054H
	DB	054H
	DB	055H
	DB	056H
	DB	056H
	DB	057H
	DB	058H
	DB	058H
	DB	059H
	DB	05AH
	DB	05BH
	DB	05BH
	DB	05CH
	DB	05DH
	DB	05DH
	DB	05EH
	DB	05FH
	DB	05FH
	DB	060H
	DB	061H
	DB	062H
	DB	062H
	DB	063H
	DB	064H
	DB	064H
	DB	065H
	DB	066H
	DB	066H
	DB	067H
	DB	068H
	DB	069H
	DB	069H
	DB	06AH
	DB	06BH
	DB	06BH
	DB	06CH
	DB	06DH
	DB	06DH
	DB	06EH
	DB	06FH
	DB	070H
	DB	070H
	DB	071H
	DB	072H
	DB	072H
	DB	073H
	DB	074H
	DB	074H
	DB	075H
	DB	076H
	DB	077H
	DB	077H
	DB	078H
	DB	079H
	DB	079H
	DB	07AH
	DB	07BH
	DB	07BH
	DB	07CH
	DB	07DH
	DB	07EH
	DB	07EH
	DB	07FH
	DB	080H
	DB	080H
	DB	081H
	DB	082H
	DB	082H
	DB	083H
	DB	084H
	DB	085H
	DB	085H
	DB	086H
	DB	087H
	DB	087H
	DB	088H
	DB	089H
	DB	089H
	DB	08AH
	DB	08BH
	DB	08CH
	DB	08CH
	DB	08DH
	DB	08EH
	DB	08EH
	DB	08FH
	DB	090H
	DB	090H
	DB	091H
	DB	092H
	DB	093H
	DB	093H
	DB	094H
	DB	095H
	DB	095H
	DB	096H
	DB	097H
	DB	097H
	DB	098H
	DB	099H
	DB	09AH
	DB	09AH
	DB	09BH
	DB	09CH
	DB	09CH
	DB	09DH
	DB	09EH
	DB	09EH
	DB	09FH
	DB	0A0H
	DB	0A1H
	DB	0A1H
	DB	0A2H
	DB	0A3H
	DB	0A3H
	DB	0A4H
	DB	0A5H
	DB	0A5H
	DB	0A6H
	DB	0A7H
	DB	0A8H
	DB	0A8H
	DB	0A9H
	DB	0AAH
	DB	0AAH
	DB	0ABH
	DB	0ACH
	DB	0ACH
	DB	0ADH
	DB	0AEH
	DB	0AFH
	DB	0AFH
	DB	0B0H
	DB	0B1H
	DB	0B1H
	DB	0B2H
	DB	000H
	DB	000H
	DB	001H
	DB	002H
	DB	003H
	DB	004H
	DB	004H
	DB	005H
	DB	006H
	DB	007H
	DB	008H
	DB	008H
	DB	009H
	DB	00AH
	DB	00BH
	DB	00CH
	DB	00CH
	DB	00DH
	DB	00EH
	DB	00FH
	DB	010H
	DB	010H
	DB	011H
	DB	012H
	DB	013H
	DB	014H
	DB	014H
	DB	015H
	DB	016H
	DB	017H
	DB	018H
	DB	018H
	DB	019H
	DB	01AH
	DB	01BH
	DB	01CH
	DB	01CH
	DB	01DH
	DB	01EH
	DB	01FH
	DB	020H
	DB	020H
	DB	021H
	DB	022H
	DB	023H
	DB	024H
	DB	024H
	DB	025H
	DB	026H
	DB	027H
	DB	028H
	DB	028H
	DB	029H
	DB	02AH
	DB	02BH
	DB	02CH
	DB	02CH
	DB	02DH
	DB	02EH
	DB	02FH
	DB	030H
	DB	030H
	DB	031H
	DB	032H
	DB	033H
	DB	034H
	DB	034H
	DB	035H
	DB	036H
	DB	037H
	DB	038H
	DB	038H
	DB	039H
	DB	03AH
	DB	03BH
	DB	03CH
	DB	03CH
	DB	03DH
	DB	03EH
	DB	03FH
	DB	040H
	DB	040H
	DB	041H
	DB	042H
	DB	043H
	DB	044H
	DB	044H
	DB	045H
	DB	046H
	DB	047H
	DB	048H
	DB	048H
	DB	049H
	DB	04AH
	DB	04BH
	DB	04CH
	DB	04CH
	DB	04DH
	DB	04EH
	DB	04FH
	DB	050H
	DB	050H
	DB	051H
	DB	052H
	DB	053H
	DB	054H
	DB	054H
	DB	055H
	DB	056H
	DB	057H
	DB	058H
	DB	058H
	DB	059H
	DB	05AH
	DB	05BH
	DB	05CH
	DB	05CH
	DB	05DH
	DB	05EH
	DB	05FH
	DB	060H
	DB	060H
	DB	061H
	DB	062H
	DB	063H
	DB	064H
	DB	064H
	DB	065H
	DB	066H
	DB	067H
	DB	068H
	DB	068H
	DB	069H
	DB	06AH
	DB	06BH
	DB	06CH
	DB	06CH
	DB	06DH
	DB	06EH
	DB	06FH
	DB	070H
	DB	070H
	DB	071H
	DB	072H
	DB	073H
	DB	074H
	DB	074H
	DB	075H
	DB	076H
	DB	077H
	DB	078H
	DB	078H
	DB	079H
	DB	07AH
	DB	07BH
	DB	07CH
	DB	07CH
	DB	07DH
	DB	07EH
	DB	07FH
	DB	080H
	DB	080H
	DB	081H
	DB	082H
	DB	083H
	DB	084H
	DB	084H
	DB	085H
	DB	086H
	DB	087H
	DB	088H
	DB	088H
	DB	089H
	DB	08AH
	DB	08BH
	DB	08CH
	DB	08CH
	DB	08DH
	DB	08EH
	DB	08FH
	DB	090H
	DB	090H
	DB	091H
	DB	092H
	DB	093H
	DB	094H
	DB	094H
	DB	095H
	DB	096H
	DB	097H
	DB	098H
	DB	098H
	DB	099H
	DB	09AH
	DB	09BH
	DB	09CH
	DB	09CH
	DB	09DH
	DB	09EH
	DB	09FH
	DB	0A0H
	DB	0A0H
	DB	0A1H
	DB	0A2H
	DB	0A3H
	DB	0A4H
	DB	0A4H
	DB	0A5H
	DB	0A6H
	DB	0A7H
	DB	0A8H
	DB	0A8H
	DB	0A9H
	DB	0AAH
	DB	0ABH
	DB	0ACH
	DB	0ACH
	DB	0ADH
	DB	0AEH
	DB	0AFH
	DB	0B0H
	DB	0B0H
	DB	0B1H
	DB	0B2H
	DB	0B3H
	DB	0B4H
	DB	0B4H
	DB	0B5H
	DB	0B6H
	DB	0B7H
	DB	0B8H
	DB	0B8H
	DB	0B9H
	DB	0BAH
	DB	0BBH
	DB	0BCH
	DB	0BCH
	DB	0BDH
	DB	0BEH
	DB	0BFH
	DB	0C0H
	DB	0C0H
	DB	0C1H
	DB	0C2H
	DB	0C3H
	DB	0C4H
	DB	0C4H
	DB	0C5H
	DB	0C6H
	DB	0C7H
	DB	0C8H
	DB	0C8H
	DB	0C9H
	DB	0CAH
	DB	0CBH
	DB	0CCH
	DB	000H
	DB	000H
	DB	001H
	DB	002H
	DB	003H
	DB	004H
	DB	005H
	DB	006H
	DB	007H
	DB	008H
	DB	009H
	DB	009H
	DB	00AH
	DB	00BH
	DB	00CH
	DB	00DH
	DB	00EH
	DB	00FH
	DB	010H
	DB	011H
	DB	012H
	DB	012H
	DB	013H
	DB	014H
	DB	015H
	DB	016H
	DB	017H
	DB	018H
	DB	019H
	DB	01AH
	DB	01BH
	DB	01BH
	DB	01CH
	DB	01DH
	DB	01EH
	DB	01FH
	DB	020H
	DB	021H
	DB	022H
	DB	023H
	DB	024H
	DB	024H
	DB	025H
	DB	026H
	DB	027H
	DB	028H
	DB	029H
	DB	02AH
	DB	02BH
	DB	02CH
	DB	02DH
	DB	02DH
	DB	02EH
	DB	02FH
	DB	030H
	DB	031H
	DB	032H
	DB	033H
	DB	034H
	DB	035H
	DB	036H
	DB	036H
	DB	037H
	DB	038H
	DB	039H
	DB	03AH
	DB	03BH
	DB	03CH
	DB	03DH
	DB	03EH
	DB	03FH
	DB	03FH
	DB	040H
	DB	041H
	DB	042H
	DB	043H
	DB	044H
	DB	045H
	DB	046H
	DB	047H
	DB	048H
	DB	048H
	DB	049H
	DB	04AH
	DB	04BH
	DB	04CH
	DB	04DH
	DB	04EH
	DB	04FH
	DB	050H
	DB	051H
	DB	051H
	DB	052H
	DB	053H
	DB	054H
	DB	055H
	DB	056H
	DB	057H
	DB	058H
	DB	059H
	DB	05AH
	DB	05AH
	DB	05BH
	DB	05CH
	DB	05DH
	DB	05EH
	DB	05FH
	DB	060H
	DB	061H
	DB	062H
	DB	063H
	DB	063H
	DB	064H
	DB	065H
	DB	066H
	DB	067H
	DB	068H
	DB	069H
	DB	06AH
	DB	06BH
	DB	06CH
	DB	06CH
	DB	06DH
	DB	06EH
	DB	06FH
	DB	070H
	DB	071H
	DB	072H
	DB	073H
	DB	074H
	DB	075H
	DB	075H
	DB	076H
	DB	077H
	DB	078H
	DB	079H
	DB	07AH
	DB	07BH
	DB	07CH
	DB	07DH
	DB	07EH
	DB	07EH
	DB	07FH
	DB	080H
	DB	081H
	DB	082H
	DB	083H
	DB	084H
	DB	085H
	DB	086H
	DB	087H
	DB	087H
	DB	088H
	DB	089H
	DB	08AH
	DB	08BH
	DB	08CH
	DB	08DH
	DB	08EH
	DB	08FH
	DB	090H
	DB	090H
	DB	091H
	DB	092H
	DB	093H
	DB	094H
	DB	095H
	DB	096H
	DB	097H
	DB	098H
	DB	099H
	DB	099H
	DB	09AH
	DB	09BH
	DB	09CH
	DB	09DH
	DB	09EH
	DB	09FH
	DB	0A0H
	DB	0A1H
	DB	0A2H
	DB	0A2H
	DB	0A3H
	DB	0A4H
	DB	0A5H
	DB	0A6H
	DB	0A7H
	DB	0A8H
	DB	0A9H
	DB	0AAH
	DB	0ABH
	DB	0ABH
	DB	0ACH
	DB	0ADH
	DB	0AEH
	DB	0AFH
	DB	0B0H
	DB	0B1H
	DB	0B2H
	DB	0B3H
	DB	0B4H
	DB	0B4H
	DB	0B5H
	DB	0B6H
	DB	0B7H
	DB	0B8H
	DB	0B9H
	DB	0BAH
	DB	0BBH
	DB	0BCH
	DB	0BDH
	DB	0BDH
	DB	0BEH
	DB	0BFH
	DB	0C0H
	DB	0C1H
	DB	0C2H
	DB	0C3H
	DB	0C4H
	DB	0C5H
	DB	0C6H
	DB	0C6H
	DB	0C7H
	DB	0C8H
	DB	0C9H
	DB	0CAH
	DB	0CBH
	DB	0CCH
	DB	0CDH
	DB	0CEH
	DB	0CFH
	DB	0CFH
	DB	0D0H
	DB	0D1H
	DB	0D2H
	DB	0D3H
	DB	0D4H
	DB	0D5H
	DB	0D6H
	DB	0D7H
	DB	0D8H
	DB	0D8H
	DB	0D9H
	DB	0DAH
	DB	0DBH
	DB	0DCH
	DB	0DDH
	DB	0DEH
	DB	0DFH
	DB	0E0H
	DB	0E1H
	DB	0E1H
	DB	0E2H
	DB	0E3H
	DB	0E4H
	DB	0E5H
	DB	000H
	DB	001H
	DB	002H
	DB	003H
	DB	004H
	DB	005H
	DB	006H
	DB	007H
	DB	008H
	DB	009H
	DB	00AH
	DB	00BH
	DB	00CH
	DB	00DH
	DB	00EH
	DB	00FH
	DB	010H
	DB	011H
	DB	012H
	DB	013H
	DB	014H
	DB	015H
	DB	016H
	DB	017H
	DB	018H
	DB	019H
	DB	01AH
	DB	01BH
	DB	01CH
	DB	01DH
	DB	01EH
	DB	01FH
	DB	020H
	DB	021H
	DB	022H
	DB	023H
	DB	024H
	DB	025H
	DB	026H
	DB	027H
	DB	028H
	DB	029H
	DB	02AH
	DB	02BH
	DB	02CH
	DB	02DH
	DB	02EH
	DB	02FH
	DB	030H
	DB	031H
	DB	032H
	DB	033H
	DB	034H
	DB	035H
	DB	036H
	DB	037H
	DB	038H
	DB	039H
	DB	03AH
	DB	03BH
	DB	03CH
	DB	03DH
	DB	03EH
	DB	03FH
	DB	040H
	DB	041H
	DB	042H
	DB	043H
	DB	044H
	DB	045H
	DB	046H
	DB	047H
	DB	048H
	DB	049H
	DB	04AH
	DB	04BH
	DB	04CH
	DB	04DH
	DB	04EH
	DB	04FH
	DB	050H
	DB	051H
	DB	052H
	DB	053H
	DB	054H
	DB	055H
	DB	056H
	DB	057H
	DB	058H
	DB	059H
	DB	05AH
	DB	05BH
	DB	05CH
	DB	05DH
	DB	05EH
	DB	05FH
	DB	060H
	DB	061H
	DB	062H
	DB	063H
	DB	064H
	DB	065H
	DB	066H
	DB	067H
	DB	068H
	DB	069H
	DB	06AH
	DB	06BH
	DB	06CH
	DB	06DH
	DB	06EH
	DB	06FH
	DB	070H
	DB	071H
	DB	072H
	DB	073H
	DB	074H
	DB	075H
	DB	076H
	DB	077H
	DB	078H
	DB	079H
	DB	07AH
	DB	07BH
	DB	07CH
	DB	07DH
	DB	07EH
	DB	07FH
	DB	080H
	DB	081H
	DB	082H
	DB	083H
	DB	084H
	DB	085H
	DB	086H
	DB	087H
	DB	088H
	DB	089H
	DB	08AH
	DB	08BH
	DB	08CH
	DB	08DH
	DB	08EH
	DB	08FH
	DB	090H
	DB	091H
	DB	092H
	DB	093H
	DB	094H
	DB	095H
	DB	096H
	DB	097H
	DB	098H
	DB	099H
	DB	09AH
	DB	09BH
	DB	09CH
	DB	09DH
	DB	09EH
	DB	09FH
	DB	0A0H
	DB	0A1H
	DB	0A2H
	DB	0A3H
	DB	0A4H
	DB	0A5H
	DB	0A6H
	DB	0A7H
	DB	0A8H
	DB	0A9H
	DB	0AAH
	DB	0ABH
	DB	0ACH
	DB	0ADH
	DB	0AEH
	DB	0AFH
	DB	0B0H
	DB	0B1H
	DB	0B2H
	DB	0B3H
	DB	0B4H
	DB	0B5H
	DB	0B6H
	DB	0B7H
	DB	0B8H
	DB	0B9H
	DB	0BAH
	DB	0BBH
	DB	0BCH
	DB	0BDH
	DB	0BEH
	DB	0BFH
	DB	0C0H
	DB	0C1H
	DB	0C2H
	DB	0C3H
	DB	0C4H
	DB	0C5H
	DB	0C6H
	DB	0C7H
	DB	0C8H
	DB	0C9H
	DB	0CAH
	DB	0CBH
	DB	0CCH
	DB	0CDH
	DB	0CEH
	DB	0CFH
	DB	0D0H
	DB	0D1H
	DB	0D2H
	DB	0D3H
	DB	0D4H
	DB	0D5H
	DB	0D6H
	DB	0D7H
	DB	0D8H
	DB	0D9H
	DB	0DAH
	DB	0DBH
	DB	0DCH
	DB	0DDH
	DB	0DEH
	DB	0DFH
	DB	0E0H
	DB	0E1H
	DB	0E2H
	DB	0E3H
	DB	0E4H
	DB	0E5H
	DB	0E6H
	DB	0E7H
	DB	0E8H
	DB	0E9H
	DB	0EAH
	DB	0EBH
	DB	0ECH
	DB	0EDH
	DB	0EEH
	DB	0EFH
	DB	0F0H
	DB	0F1H
	DB	0F2H
	DB	0F3H
	DB	0F4H
	DB	0F5H
	DB	0F6H
	DB	0F7H
	DB	0F8H
	DB	0F9H
	DB	0FAH
	DB	0FBH
	DB	0FCH
	DB	0FDH
	DB	0FEH
	DB	0FFH
	DB	000H
	DB	001H
	DB	002H
	DB	003H
	DB	004H
	DB	005H
	DB	006H
	DB	007H
	DB	008H
	DB	009H
	DB	00BH
	DB	00CH
	DB	00DH
	DB	00EH
	DB	00FH
	DB	010H
	DB	011H
	DB	012H
	DB	013H
	DB	014H
	DB	016H
	DB	017H
	DB	018H
	DB	019H
	DB	01AH
	DB	01BH
	DB	01CH
	DB	01DH
	DB	01EH
	DB	01FH
	DB	021H
	DB	022H
	DB	023H
	DB	024H
	DB	025H
	DB	026H
	DB	027H
	DB	028H
	DB	029H
	DB	02AH
	DB	02CH
	DB	02DH
	DB	02EH
	DB	02FH
	DB	030H
	DB	031H
	DB	032H
	DB	033H
	DB	034H
	DB	035H
	DB	037H
	DB	038H
	DB	039H
	DB	03AH
	DB	03BH
	DB	03CH
	DB	03DH
	DB	03EH
	DB	03FH
	DB	040H
	DB	042H
	DB	043H
	DB	044H
	DB	045H
	DB	046H
	DB	047H
	DB	048H
	DB	049H
	DB	04AH
	DB	04BH
	DB	04DH
	DB	04EH
	DB	04FH
	DB	050H
	DB	051H
	DB	052H
	DB	053H
	DB	054H
	DB	055H
	DB	056H
	DB	058H
	DB	059H
	DB	05AH
	DB	05BH
	DB	05CH
	DB	05DH
	DB	05EH
	DB	05FH
	DB	060H
	DB	061H
	DB	063H
	DB	064H
	DB	065H
	DB	066H
	DB	067H
	DB	068H
	DB	069H
	DB	06AH
	DB	06BH
	DB	06CH
	DB	06EH
	DB	06FH
	DB	070H
	DB	071H
	DB	072H
	DB	073H
	DB	074H
	DB	075H
	DB	076H
	DB	077H
	DB	079H
	DB	07AH
	DB	07BH
	DB	07CH
	DB	07DH
	DB	07EH
	DB	07FH
	DB	080H
	DB	081H
	DB	082H
	DB	084H
	DB	085H
	DB	086H
	DB	087H
	DB	088H
	DB	089H
	DB	08AH
	DB	08BH
	DB	08CH
	DB	08DH
	DB	08FH
	DB	090H
	DB	091H
	DB	092H
	DB	093H
	DB	094H
	DB	095H
	DB	096H
	DB	097H
	DB	098H
	DB	09AH
	DB	09BH
	DB	09CH
	DB	09DH
	DB	09EH
	DB	09FH
	DB	0A0H
	DB	0A1H
	DB	0A2H
	DB	0A3H
	DB	0A5H
	DB	0A6H
	DB	0A7H
	DB	0A8H
	DB	0A9H
	DB	0AAH
	DB	0ABH
	DB	0ACH
	DB	0ADH
	DB	0AEH
	DB	0B0H
	DB	0B1H
	DB	0B2H
	DB	0B3H
	DB	0B4H
	DB	0B5H
	DB	0B6H
	DB	0B7H
	DB	0B8H
	DB	0B9H
	DB	0BBH
	DB	0BCH
	DB	0BDH
	DB	0BEH
	DB	0BFH
	DB	0C0H
	DB	0C1H
	DB	0C2H
	DB	0C3H
	DB	0C4H
	DB	0C6H
	DB	0C7H
	DB	0C8H
	DB	0C9H
	DB	0CAH
	DB	0CBH
	DB	0CCH
	DB	0CDH
	DB	0CEH
	DB	0CFH
	DB	0D1H
	DB	0D2H
	DB	0D3H
	DB	0D4H
	DB	0D5H
	DB	0D6H
	DB	0D7H
	DB	0D8H
	DB	0D9H
	DB	0DAH
	DB	0DCH
	DB	0DDH
	DB	0DEH
	DB	0DFH
	DB	0E0H
	DB	0E1H
	DB	0E2H
	DB	0E3H
	DB	0E4H
	DB	0E5H
	DB	0E7H
	DB	0E8H
	DB	0E9H
	DB	0EAH
	DB	0EBH
	DB	0ECH
	DB	0EDH
	DB	0EEH
	DB	0EFH
	DB	0F0H
	DB	0F2H
	DB	0F3H
	DB	0F4H
	DB	0F5H
	DB	0F6H
	DB	0F7H
	DB	0F8H
	DB	0F9H
	DB	0FAH
	DB	0FBH
	DB	0FDH
	DB	0FEH
	DB	0FFH
	DB	0FFH
	DB	0FFH
	DB	0FFH
	DB	0FFH
	DB	0FFH
	DB	0FFH
	DB	0FFH
	DB	0FFH
	DB	0FFH
	DB	0FFH
	DB	0FFH
	DB	0FFH
	DB	0FFH
	DB	0FFH
	DB	0FFH
	DB	0FFH
	DB	0FFH
	DB	0FFH
	DB	0FFH
	DB	0FFH
	DB	0FFH
	DB	0FFH
	DB	0FFH
	DB	000H
	DB	001H
	DB	002H
	DB	003H
	DB	004H
	DB	006H
	DB	007H
	DB	008H
	DB	009H
	DB	00AH
	DB	00CH
	DB	00DH
	DB	00EH
	DB	00FH
	DB	010H
	DB	012H
	DB	013H
	DB	014H
	DB	015H
	DB	016H
	DB	018H
	DB	019H
	DB	01AH
	DB	01BH
	DB	01CH
	DB	01EH
	DB	01FH
	DB	020H
	DB	021H
	DB	022H
	DB	024H
	DB	025H
	DB	026H
	DB	027H
	DB	028H
	DB	02AH
	DB	02BH
	DB	02CH
	DB	02DH
	DB	02EH
	DB	030H
	DB	031H
	DB	032H
	DB	033H
	DB	034H
	DB	036H
	DB	037H
	DB	038H
	DB	039H
	DB	03AH
	DB	03CH
	DB	03DH
	DB	03EH
	DB	03FH
	DB	040H
	DB	042H
	DB	043H
	DB	044H
	DB	045H
	DB	046H
	DB	048H
	DB	049H
	DB	04AH
	DB	04BH
	DB	04CH
	DB	04EH
	DB	04FH
	DB	050H
	DB	051H
	DB	052H
	DB	054H
	DB	055H
	DB	056H
	DB	057H
	DB	058H
	DB	05AH
	DB	05BH
	DB	05CH
	DB	05DH
	DB	05EH
	DB	060H
	DB	061H
	DB	062H
	DB	063H
	DB	064H
	DB	066H
	DB	067H
	DB	068H
	DB	069H
	DB	06AH
	DB	06CH
	DB	06DH
	DB	06EH
	DB	06FH
	DB	070H
	DB	072H
	DB	073H
	DB	074H
	DB	075H
	DB	076H
	DB	078H
	DB	079H
	DB	07AH
	DB	07BH
	DB	07CH
	DB	07EH
	DB	07FH
	DB	080H
	DB	081H
	DB	082H
	DB	084H
	DB	085H
	DB	086H
	DB	087H
	DB	088H
	DB	08AH
	DB	08BH
	DB	08CH
	DB	08DH
	DB	08EH
	DB	090H
	DB	091H
	DB	092H
	DB	093H
	DB	094H
	DB	096H
	DB	097H
	DB	098H
	DB	099H
	DB	09AH
	DB	09CH
	DB	09DH
	DB	09EH
	DB	09FH
	DB	0A0H
	DB	0A2H
	DB	0A3H
	DB	0A4H
	DB	0A5H
	DB	0A6H
	DB	0A8H
	DB	0A9H
	DB	0AAH
	DB	0ABH
	DB	0ACH
	DB	0AEH
	DB	0AFH
	DB	0B0H
	DB	0B1H
	DB	0B2H
	DB	0B4H
	DB	0B5H
	DB	0B6H
	DB	0B7H
	DB	0B8H
	DB	0BAH
	DB	0BBH
	DB	0BCH
	DB	0BDH
	DB	0BEH
	DB	0C0H
	DB	0C1H
	DB	0C2H
	DB	0C3H
	DB	0C4H
	DB	0C6H
	DB	0C7H
	DB	0C8H
	DB	0C9H
	DB	0CAH
	DB	0CCH
	DB	0CDH
	DB	0CEH
	DB	0CFH
	DB	0D0H
	DB	0D2H
	DB	0D3H
	DB	0D4H
	DB	0D5H
	DB	0D6H
	DB	0D8H
	DB	0D9H
	DB	0DAH
	DB	0DBH
	DB	0DCH
	DB	0DEH
	DB	0DFH
	DB	0E0H
	DB	0E1H
	DB	0E2H
	DB	0E4H
	DB	0E5H
	DB	0E6H
	DB	0E7H
	DB	0E8H
	DB	0EAH
	DB	0EBH
	DB	0ECH
	DB	0EDH
	DB	0EEH
	DB	0F0H
	DB	0F1H
	DB	0F2H
	DB	0F3H
	DB	0F4H
	DB	0F6H
	DB	0F7H
	DB	0F8H
	DB	0F9H
	DB	0FAH
	DB	0FCH
	DB	0FDH
	DB	0FEH
	DB	0FFH
	DB	0FFH
	DB	0FFH
	DB	0FFH
	DB	0FFH
	DB	0FFH
	DB	0FFH
	DB	0FFH
	DB	0FFH
	DB	0FFH
	DB	0FFH
	DB	0FFH
	DB	0FFH
	DB	0FFH
	DB	0FFH
	DB	0FFH
	DB	0FFH
	DB	0FFH
	DB	0FFH
	DB	0FFH
	DB	0FFH
	DB	0FFH
	DB	0FFH
	DB	0FFH
	DB	0FFH
	DB	0FFH
	DB	0FFH
	DB	0FFH
	DB	0FFH
	DB	0FFH
	DB	0FFH
	DB	0FFH
	DB	0FFH
	DB	0FFH
	DB	0FFH
	DB	0FFH
	DB	0FFH
	DB	0FFH
	DB	0FFH
	DB	0FFH
	DB	0FFH
	DB	0FFH
	DB	0FFH
	DB	000H
	DB	001H
	DB	002H
	DB	003H
	DB	005H
	DB	006H
	DB	007H
	DB	009H
	DB	00AH
	DB	00BH
	DB	00DH
	DB	00EH
	DB	00FH
	DB	010H
	DB	012H
	DB	013H
	DB	014H
	DB	016H
	DB	017H
	DB	018H
	DB	01AH
	DB	01BH
	DB	01CH
	DB	01DH
	DB	01FH
	DB	020H
	DB	021H
	DB	023H
	DB	024H
	DB	025H
	DB	027H
	DB	028H
	DB	029H
	DB	02AH
	DB	02CH
	DB	02DH
	DB	02EH
	DB	030H
	DB	031H
	DB	032H
	DB	034H
	DB	035H
	DB	036H
	DB	037H
	DB	039H
	DB	03AH
	DB	03BH
	DB	03DH
	DB	03EH
	DB	03FH
	DB	041H
	DB	042H
	DB	043H
	DB	044H
	DB	046H
	DB	047H
	DB	048H
	DB	04AH
	DB	04BH
	DB	04CH
	DB	04EH
	DB	04FH
	DB	050H
	DB	051H
	DB	053H
	DB	054H
	DB	055H
	DB	057H
	DB	058H
	DB	059H
	DB	05BH
	DB	05CH
	DB	05DH
	DB	05EH
	DB	060H
	DB	061H
	DB	062H
	DB	064H
	DB	065H
	DB	066H
	DB	068H
	DB	069H
	DB	06AH
	DB	06BH
	DB	06DH
	DB	06EH
	DB	06FH
	DB	071H
	DB	072H
	DB	073H
	DB	075H
	DB	076H
	DB	077H
	DB	078H
	DB	07AH
	DB	07BH
	DB	07CH
	DB	07EH
	DB	07FH
	DB	080H
	DB	082H
	DB	083H
	DB	084H
	DB	085H
	DB	087H
	DB	088H
	DB	089H
	DB	08BH
	DB	08CH
	DB	08DH
	DB	08FH
	DB	090H
	DB	091H
	DB	092H
	DB	094H
	DB	095H
	DB	096H
	DB	098H
	DB	099H
	DB	09AH
	DB	09CH
	DB	09DH
	DB	09EH
	DB	09FH
	DB	0A1H
	DB	0A2H
	DB	0A3H
	DB	0A5H
	DB	0A6H
	DB	0A7H
	DB	0A9H
	DB	0AAH
	DB	0ABH
	DB	0ACH
	DB	0AEH
	DB	0AFH
	DB	0B0H
	DB	0B2H
	DB	0B3H
	DB	0B4H
	DB	0B6H
	DB	0B7H
	DB	0B8H
	DB	0B9H
	DB	0BBH
	DB	0BCH
	DB	0BDH
	DB	0BFH
	DB	0C0H
	DB	0C1H
	DB	0C3H
	DB	0C4H
	DB	0C5H
	DB	0C6H
	DB	0C8H
	DB	0C9H
	DB	0CAH
	DB	0CCH
	DB	0CDH
	DB	0CEH
	DB	0D0H
	DB	0D1H
	DB	0D2H
	DB	0D3H
	DB	0D5H
	DB	0D6H
	DB	0D7H
	DB	0D9H
	DB	0DAH
	DB	0DBH
	DB	0DDH
	DB	0DEH
	DB	0DFH
	DB	0E0H
	DB	0E2H
	DB	0E3H
	DB	0E4H
	DB	0E6H
	DB	0E7H
	DB	0E8H
	DB	0EAH
	DB	0EBH
	DB	0ECH
	DB	0EDH
	DB	0EFH
	DB	0F0H
	DB	0F1H
	DB	0F3H
	DB	0F4H
	DB	0F5H
	DB	0F7H
	DB	0F8H
	DB	0F9H
	DB	0FAH
	DB	0FCH
	DB	0FDH
	DB	0FEH
	DB	0FFH
	DB	0FFH
	DB	0FFH
	DB	0FFH
	DB	0FFH
	DB	0FFH
	DB	0FFH
	DB	0FFH
	DB	0FFH
	DB	0FFH
	DB	0FFH
	DB	0FFH
	DB	0FFH
	DB	0FFH
	DB	0FFH
	DB	0FFH
	DB	0FFH
	DB	0FFH
	DB	0FFH
	DB	0FFH
	DB	0FFH
	DB	0FFH
	DB	0FFH
	DB	0FFH
	DB	0FFH
	DB	0FFH
	DB	0FFH
	DB	0FFH
	DB	0FFH
	DB	0FFH
	DB	0FFH
	DB	0FFH
	DB	0FFH
	DB	0FFH
	DB	0FFH
	DB	0FFH
	DB	0FFH
	DB	0FFH
	DB	0FFH
	DB	0FFH
	DB	0FFH
	DB	0FFH
	DB	0FFH
	DB	0FFH
	DB	0FFH
	DB	0FFH
	DB	0FFH
	DB	0FFH
	DB	0FFH
	DB	0FFH
	DB	0FFH
	DB	0FFH
	DB	0FFH
	DB	0FFH
	DB	0FFH
	DB	0FFH
	DB	0FFH
	DB	0FFH
	DB	0FFH
	DB	000H
	DB	001H
	DB	002H
	DB	004H
	DB	005H
	DB	007H
	DB	008H
	DB	009H
	DB	00BH
	DB	00CH
	DB	00EH
	DB	00FH
	DB	010H
	DB	012H
	DB	013H
	DB	015H
	DB	016H
	DB	017H
	DB	019H
	DB	01AH
	DB	01CH
	DB	01DH
	DB	01EH
	DB	020H
	DB	021H
	DB	023H
	DB	024H
	DB	025H
	DB	027H
	DB	028H
	DB	02AH
	DB	02BH
	DB	02CH
	DB	02EH
	DB	02FH
	DB	031H
	DB	032H
	DB	033H
	DB	035H
	DB	036H
	DB	038H
	DB	039H
	DB	03AH
	DB	03CH
	DB	03DH
	DB	03FH
	DB	040H
	DB	041H
	DB	043H
	DB	044H
	DB	046H
	DB	047H
	DB	048H
	DB	04AH
	DB	04BH
	DB	04DH
	DB	04EH
	DB	04FH
	DB	051H
	DB	052H
	DB	054H
	DB	055H
	DB	056H
	DB	058H
	DB	059H
	DB	05BH
	DB	05CH
	DB	05DH
	DB	05FH
	DB	060H
	DB	062H
	DB	063H
	DB	064H
	DB	066H
	DB	067H
	DB	069H
	DB	06AH
	DB	06BH
	DB	06DH
	DB	06EH
	DB	070H
	DB	071H
	DB	072H
	DB	074H
	DB	075H
	DB	077H
	DB	078H
	DB	079H
	DB	07BH
	DB	07CH
	DB	07EH
	DB	07FH
	DB	080H
	DB	082H
	DB	083H
	DB	085H
	DB	086H
	DB	087H
	DB	089H
	DB	08AH
	DB	08CH
	DB	08DH
	DB	08EH
	DB	090H
	DB	091H
	DB	093H
	DB	094H
	DB	095H
	DB	097H
	DB	098H
	DB	09AH
	DB	09BH
	DB	09CH
	DB	09EH
	DB	09FH
	DB	0A1H
	DB	0A2H
	DB	0A3H
	DB	0A5H
	DB	0A6H
	DB	0A8H
	DB	0A9H
	DB	0AAH
	DB	0ACH
	DB	0ADH
	DB	0AFH
	DB	0B0H
	DB	0B1H
	DB	0B3H
	DB	0B4H
	DB	0B6H
	DB	0B7H
	DB	0B8H
	DB	0BAH
	DB	0BBH
	DB	0BDH
	DB	0BEH
	DB	0BFH
	DB	0C1H
	DB	0C2H
	DB	0C4H
	DB	0C5H
	DB	0C6H
	DB	0C8H
	DB	0C9H
	DB	0CBH
	DB	0CCH
	DB	0CDH
	DB	0CFH
	DB	0D0H
	DB	0D2H
	DB	0D3H
	DB	0D4H
	DB	0D6H
	DB	0D7H
	DB	0D9H
	DB	0DAH
	DB	0DBH
	DB	0DDH
	DB	0DEH
	DB	0E0H
	DB	0E1H
	DB	0E2H
	DB	0E4H
	DB	0E5H
	DB	0E7H
	DB	0E8H
	DB	0E9H
	DB	0EBH
	DB	0ECH
	DB	0EEH
	DB	0EFH
	DB	0F0H
	DB	0F2H
	DB	0F3H
	DB	0F5H
	DB	0F6H
	DB	0F7H
	DB	0F9H
	DB	0FAH
	DB	0FCH
	DB	0FDH
	DB	0FEH
	DB	0FFH
	DB	0FFH
	DB	0FFH
	DB	0FFH
	DB	0FFH
	DB	0FFH
	DB	0FFH
	DB	0FFH
	DB	0FFH
	DB	0FFH
	DB	0FFH
	DB	0FFH
	DB	0FFH
	DB	0FFH
	DB	0FFH
	DB	0FFH
	DB	0FFH
	DB	0FFH
	DB	0FFH
	DB	0FFH
	DB	0FFH
	DB	0FFH
	DB	0FFH
	DB	0FFH
	DB	0FFH
	DB	0FFH
	DB	0FFH
	DB	0FFH
	DB	0FFH
	DB	0FFH
	DB	0FFH
	DB	0FFH
	DB	0FFH
	DB	0FFH
	DB	0FFH
	DB	0FFH
	DB	0FFH
	DB	0FFH
	DB	0FFH
	DB	0FFH
	DB	0FFH
	DB	0FFH
	DB	0FFH
	DB	0FFH
	DB	0FFH
	DB	0FFH
	DB	0FFH
	DB	0FFH
	DB	0FFH
	DB	0FFH
	DB	0FFH
	DB	0FFH
	DB	0FFH
	DB	0FFH
	DB	0FFH
	DB	0FFH
	DB	0FFH
	DB	0FFH
	DB	0FFH
	DB	0FFH
	DB	0FFH
	DB	0FFH
	DB	0FFH
	DB	0FFH
	DB	0FFH
	DB	0FFH
	DB	0FFH
	DB	0FFH
	DB	0FFH
	DB	0FFH
	DB	0FFH
	DB	0FFH
	DB	0FFH
	DB	000H
	DB	001H
	DB	003H
	DB	004H
	DB	006H
	DB	007H
	DB	009H
	DB	00AH
	DB	00CH
	DB	00DH
	DB	00FH
	DB	010H
	DB	012H
	DB	013H
	DB	015H
	DB	016H
	DB	018H
	DB	019H
	DB	01BH
	DB	01CH
	DB	01EH
	DB	01FH
	DB	021H
	DB	022H
	DB	024H
	DB	025H
	DB	027H
	DB	028H
	DB	02AH
	DB	02BH
	DB	02DH
	DB	02EH
	DB	030H
	DB	031H
	DB	033H
	DB	034H
	DB	036H
	DB	037H
	DB	039H
	DB	03AH
	DB	03CH
	DB	03DH
	DB	03FH
	DB	040H
	DB	042H
	DB	043H
	DB	045H
	DB	046H
	DB	048H
	DB	049H
	DB	04BH
	DB	04CH
	DB	04EH
	DB	04FH
	DB	051H
	DB	052H
	DB	054H
	DB	055H
	DB	057H
	DB	058H
	DB	05AH
	DB	05BH
	DB	05DH
	DB	05EH
	DB	060H
	DB	061H
	DB	063H
	DB	064H
	DB	066H
	DB	067H
	DB	069H
	DB	06AH
	DB	06CH
	DB	06DH
	DB	06FH
	DB	070H
	DB	072H
	DB	073H
	DB	075H
	DB	076H
	DB	078H
	DB	079H
	DB	07BH
	DB	07CH
	DB	07EH
	DB	07FH
	DB	081H
	DB	082H
	DB	084H
	DB	085H
	DB	087H
	DB	088H
	DB	08AH
	DB	08BH
	DB	08DH
	DB	08EH
	DB	090H
	DB	091H
	DB	093H
	DB	094H
	DB	096H
	DB	097H
	DB	099H
	DB	09AH
	DB	09CH
	DB	09DH
	DB	09FH
	DB	0A0H
	DB	0A2H
	DB	0A3H
	DB	0A5H
	DB	0A6H
	DB	0A8H
	DB	0A9H
	DB	0ABH
	DB	0ACH
	DB	0AEH
	DB	0AFH
	DB	0B1H
	DB	0B2H
	DB	0B4H
	DB	0B5H
	DB	0B7H
	DB	0B8H
	DB	0BAH
	DB	0BBH
	DB	0BDH
	DB	0BEH
	DB	0C0H
	DB	0C1H
	DB	0C3H
	DB	0C4H
	DB	0C6H
	DB	0C7H
	DB	0C9H
	DB	0CAH
	DB	0CCH
	DB	0CDH
	DB	0CFH
	DB	0D0H
	DB	0D2H
	DB	0D3H
	DB	0D5H
	DB	0D6H
	DB	0D8H
	DB	0D9H
	DB	0DBH
	DB	0DCH
	DB	0DEH
	DB	0DFH
	DB	0E1H
	DB	0E2H
	DB	0E4H
	DB	0E5H
	DB	0E7H
	DB	0E8H
	DB	0EAH
	DB	0EBH
	DB	0EDH
	DB	0EEH
	DB	0F0H
	DB	0F1H
	DB	0F3H
	DB	0F4H
	DB	0F6H
	DB	0F7H
	DB	0F9H
	DB	0FAH
	DB	0FCH
	DB	0FDH
	DB	0FFH
	DB	0FFH
	DB	0FFH
	DB	0FFH
	DB	0FFH
	DB	0FFH
	DB	0FFH
	DB	0FFH
	DB	0FFH
	DB	0FFH
	DB	0FFH
	DB	0FFH
	DB	0FFH
	DB	0FFH
	DB	0FFH
	DB	0FFH
	DB	0FFH
	DB	0FFH
	DB	0FFH
	DB	0FFH
	DB	0FFH
	DB	0FFH
	DB	0FFH
	DB	0FFH
	DB	0FFH
	DB	0FFH
	DB	0FFH
	DB	0FFH
	DB	0FFH
	DB	0FFH
	DB	0FFH
	DB	0FFH
	DB	0FFH
	DB	0FFH
	DB	0FFH
	DB	0FFH
	DB	0FFH
	DB	0FFH
	DB	0FFH
	DB	0FFH
	DB	0FFH
	DB	0FFH
	DB	0FFH
	DB	0FFH
	DB	0FFH
	DB	0FFH
	DB	0FFH
	DB	0FFH
	DB	0FFH
	DB	0FFH
	DB	0FFH
	DB	0FFH
	DB	0FFH
	DB	0FFH
	DB	0FFH
	DB	0FFH
	DB	0FFH
	DB	0FFH
	DB	0FFH
	DB	0FFH
	DB	0FFH
	DB	0FFH
	DB	0FFH
	DB	0FFH
	DB	0FFH
	DB	0FFH
	DB	0FFH
	DB	0FFH
	DB	0FFH
	DB	0FFH
	DB	0FFH
	DB	0FFH
	DB	0FFH
	DB	0FFH
	DB	0FFH
	DB	0FFH
	DB	0FFH
	DB	0FFH
	DB	0FFH
	DB	0FFH
	DB	0FFH
	DB	0FFH
	DB	0FFH
	DB	0FFH
	DB	0FFH
	DB	0FFH
	DB	000H
	DB	001H
	DB	003H
	DB	004H
	DB	006H
	DB	008H
	DB	009H
	DB	00BH
	DB	00CH
	DB	00EH
	DB	010H
	DB	011H
	DB	013H
	DB	014H
	DB	016H
	DB	018H
	DB	019H
	DB	01BH
	DB	01CH
	DB	01EH
	DB	020H
	DB	021H
	DB	023H
	DB	024H
	DB	026H
	DB	028H
	DB	029H
	DB	02BH
	DB	02CH
	DB	02EH
	DB	030H
	DB	031H
	DB	033H
	DB	034H
	DB	036H
	DB	038H
	DB	039H
	DB	03BH
	DB	03CH
	DB	03EH
	DB	040H
	DB	041H
	DB	043H
	DB	044H
	DB	046H
	DB	048H
	DB	049H
	DB	04BH
	DB	04CH
	DB	04EH
	DB	050H
	DB	051H
	DB	053H
	DB	054H
	DB	056H
	DB	058H
	DB	059H
	DB	05BH
	DB	05CH
	DB	05EH
	DB	060H
	DB	061H
	DB	063H
	DB	064H
	DB	066H
	DB	068H
	DB	069H
	DB	06BH
	DB	06CH
	DB	06EH
	DB	070H
	DB	071H
	DB	073H
	DB	074H
	DB	076H
	DB	078H
	DB	079H
	DB	07BH
	DB	07CH
	DB	07EH
	DB	080H
	DB	081H
	DB	083H
	DB	084H
	DB	086H
	DB	088H
	DB	089H
	DB	08BH
	DB	08CH
	DB	08EH
	DB	090H
	DB	091H
	DB	093H
	DB	094H
	DB	096H
	DB	098H
	DB	099H
	DB	09BH
	DB	09CH
	DB	09EH
	DB	0A0H
	DB	0A1H
	DB	0A3H
	DB	0A4H
	DB	0A6H
	DB	0A8H
	DB	0A9H
	DB	0ABH
	DB	0ACH
	DB	0AEH
	DB	0B0H
	DB	0B1H
	DB	0B3H
	DB	0B4H
	DB	0B6H
	DB	0B8H
	DB	0B9H
	DB	0BBH
	DB	0BCH
	DB	0BEH
	DB	0C0H
	DB	0C1H
	DB	0C3H
	DB	0C4H
	DB	0C6H
	DB	0C8H
	DB	0C9H
	DB	0CBH
	DB	0CCH
	DB	0CEH
	DB	0D0H
	DB	0D1H
	DB	0D3H
	DB	0D4H
	DB	0D6H
	DB	0D8H
	DB	0D9H
	DB	0DBH
	DB	0DCH
	DB	0DEH
	DB	0E0H
	DB	0E1H
	DB	0E3H
	DB	0E4H
	DB	0E6H
	DB	0E8H
	DB	0E9H
	DB	0EBH
	DB	0ECH
	DB	0EEH
	DB	0F0H
	DB	0F1H
	DB	0F3H
	DB	0F4H
	DB	0F6H
	DB	0F8H
	DB	0F9H
	DB	0FBH
	DB	0FCH
	DB	0FEH
	DB	0FFH
	DB	0FFH
	DB	0FFH
	DB	0FFH
	DB	0FFH
	DB	0FFH
	DB	0FFH
	DB	0FFH
	DB	0FFH
	DB	0FFH
	DB	0FFH
	DB	0FFH
	DB	0FFH
	DB	0FFH
	DB	0FFH
	DB	0FFH
	DB	0FFH
	DB	0FFH
	DB	0FFH
	DB	0FFH
	DB	0FFH
	DB	0FFH
	DB	0FFH
	DB	0FFH
	DB	0FFH
	DB	0FFH
	DB	0FFH
	DB	0FFH
	DB	0FFH
	DB	0FFH
	DB	0FFH
	DB	0FFH
	DB	0FFH
	DB	0FFH
	DB	0FFH
	DB	0FFH
	DB	0FFH
	DB	0FFH
	DB	0FFH
	DB	0FFH
	DB	0FFH
	DB	0FFH
	DB	0FFH
	DB	0FFH
	DB	0FFH
	DB	0FFH
	DB	0FFH
	DB	0FFH
	DB	0FFH
	DB	0FFH
	DB	0FFH
	DB	0FFH
	DB	0FFH
	DB	0FFH
	DB	0FFH
	DB	0FFH
	DB	0FFH
	DB	0FFH
	DB	0FFH
	DB	0FFH
	DB	0FFH
	DB	0FFH
	DB	0FFH
	DB	0FFH
	DB	0FFH
	DB	0FFH
	DB	0FFH
	DB	0FFH
	DB	0FFH
	DB	0FFH
	DB	0FFH
	DB	0FFH
	DB	0FFH
	DB	0FFH
	DB	0FFH
	DB	0FFH
	DB	0FFH
	DB	0FFH
	DB	0FFH
	DB	0FFH
	DB	0FFH
	DB	0FFH
	DB	0FFH
	DB	0FFH
	DB	0FFH
	DB	0FFH
	DB	0FFH
	DB	0FFH
	DB	0FFH
	DB	0FFH
	DB	0FFH
	DB	0FFH
	DB	0FFH
	DB	0FFH
	DB	0FFH
	DB	0FFH
	DB	000H
	DB	001H
	DB	003H
	DB	005H
	DB	006H
	DB	008H
	DB	00AH
	DB	00BH
	DB	00DH
	DB	00FH
	DB	011H
	DB	012H
	DB	014H
	DB	016H
	DB	017H
	DB	019H
	DB	01BH
	DB	01CH
	DB	01EH
	DB	020H
	DB	022H
	DB	023H
	DB	025H
	DB	027H
	DB	028H
	DB	02AH
	DB	02CH
	DB	02DH
	DB	02FH
	DB	031H
	DB	033H
	DB	034H
	DB	036H
	DB	038H
	DB	039H
	DB	03BH
	DB	03DH
	DB	03EH
	DB	040H
	DB	042H
	DB	044H
	DB	045H
	DB	047H
	DB	049H
	DB	04AH
	DB	04CH
	DB	04EH
	DB	04FH
	DB	051H
	DB	053H
	DB	055H
	DB	056H
	DB	058H
	DB	05AH
	DB	05BH
	DB	05DH
	DB	05FH
	DB	060H
	DB	062H
	DB	064H
	DB	066H
	DB	067H
	DB	069H
	DB	06BH
	DB	06CH
	DB	06EH
	DB	070H
	DB	071H
	DB	073H
	DB	075H
	DB	077H
	DB	078H
	DB	07AH
	DB	07CH
	DB	07DH
	DB	07FH
	DB	081H
	DB	082H
	DB	084H
	DB	086H
	DB	088H
	DB	089H
	DB	08BH
	DB	08DH
	DB	08EH
	DB	090H
	DB	092H
	DB	093H
	DB	095H
	DB	097H
	DB	099H
	DB	09AH
	DB	09CH
	DB	09EH
	DB	09FH
	DB	0A1H
	DB	0A3H
	DB	0A4H
	DB	0A6H
	DB	0A8H
	DB	0AAH
	DB	0ABH
	DB	0ADH
	DB	0AFH
	DB	0B0H
	DB	0B2H
	DB	0B4H
	DB	0B5H
	DB	0B7H
	DB	0B9H
	DB	0BBH
	DB	0BCH
	DB	0BEH
	DB	0C0H
	DB	0C1H
	DB	0C3H
	DB	0C5H
	DB	0C6H
	DB	0C8H
	DB	0CAH
	DB	0CCH
	DB	0CDH
	DB	0CFH
	DB	0D1H
	DB	0D2H
	DB	0D4H
	DB	0D6H
	DB	0D7H
	DB	0D9H
	DB	0DBH
	DB	0DDH
	DB	0DEH
	DB	0E0H
	DB	0E2H
	DB	0E3H
	DB	0E5H
	DB	0E7H
	DB	0E8H
	DB	0EAH
	DB	0ECH
	DB	0EEH
	DB	0EFH
	DB	0F1H
	DB	0F3H
	DB	0F4H
	DB	0F6H
	DB	0F8H
	DB	0F9H
	DB	0FBH
	DB	0FDH
	DB	0FFH
	DB	0FFH
	DB	0FFH
	DB	0FFH
	DB	0FFH
	DB	0FFH
	DB	0FFH
	DB	0FFH
	DB	0FFH
	DB	0FFH
	DB	0FFH
	DB	0FFH
	DB	0FFH
	DB	0FFH
	DB	0FFH
	DB	0FFH
	DB	0FFH
	DB	0FFH
	DB	0FFH
	DB	0FFH
	DB	0FFH
	DB	0FFH
	DB	0FFH
	DB	0FFH
	DB	0FFH
	DB	0FFH
	DB	0FFH
	DB	0FFH
	DB	0FFH
	DB	0FFH
	DB	0FFH
	DB	0FFH
	DB	0FFH
	DB	0FFH
	DB	0FFH
	DB	0FFH
	DB	0FFH
	DB	0FFH
	DB	0FFH
	DB	0FFH
	DB	0FFH
	DB	0FFH
	DB	0FFH
	DB	0FFH
	DB	0FFH
	DB	0FFH
	DB	0FFH
	DB	0FFH
	DB	0FFH
	DB	0FFH
	DB	0FFH
	DB	0FFH
	DB	0FFH
	DB	0FFH
	DB	0FFH
	DB	0FFH
	DB	0FFH
	DB	0FFH
	DB	0FFH
	DB	0FFH
	DB	0FFH
	DB	0FFH
	DB	0FFH
	DB	0FFH
	DB	0FFH
	DB	0FFH
	DB	0FFH
	DB	0FFH
	DB	0FFH
	DB	0FFH
	DB	0FFH
	DB	0FFH
	DB	0FFH
	DB	0FFH
	DB	0FFH
	DB	0FFH
	DB	0FFH
	DB	0FFH
	DB	0FFH
	DB	0FFH
	DB	0FFH
	DB	0FFH
	DB	0FFH
	DB	0FFH
	DB	0FFH
	DB	0FFH
	DB	0FFH
	DB	0FFH
	DB	0FFH
	DB	0FFH
	DB	0FFH
	DB	0FFH
	DB	0FFH
	DB	0FFH
	DB	0FFH
	DB	0FFH
	DB	0FFH
	DB	0FFH
	DB	0FFH
	DB	0FFH
	DB	0FFH
	DB	0FFH
	DB	0FFH
	DB	0FFH
	DB	0FFH
	DB	0FFH
	DB	000H
	DB	001H
	DB	003H
	DB	005H
	DB	007H
	DB	009H
	DB	00AH
	DB	00CH
	DB	00EH
	DB	010H
	DB	012H
	DB	013H
	DB	015H
	DB	017H
	DB	019H
	DB	01BH
	DB	01CH
	DB	01EH
	DB	020H
	DB	022H
	DB	024H
	DB	025H
	DB	027H
	DB	029H
	DB	02BH
	DB	02DH
	DB	02EH
	DB	030H
	DB	032H
	DB	034H
	DB	036H
	DB	037H
	DB	039H
	DB	03BH
	DB	03DH
	DB	03FH
	DB	040H
	DB	042H
	DB	044H
	DB	046H
	DB	048H
	DB	049H
	DB	04BH
	DB	04DH
	DB	04FH
	DB	051H
	DB	052H
	DB	054H
	DB	056H
	DB	058H
	DB	05AH
	DB	05BH
	DB	05DH
	DB	05FH
	DB	061H
	DB	063H
	DB	064H
	DB	066H
	DB	068H
	DB	06AH
	DB	06CH
	DB	06DH
	DB	06FH
	DB	071H
	DB	073H
	DB	075H
	DB	076H
	DB	078H
	DB	07AH
	DB	07CH
	DB	07EH
	DB	07FH
	DB	081H
	DB	083H
	DB	085H
	DB	087H
	DB	088H
	DB	08AH
	DB	08CH
	DB	08EH
	DB	090H
	DB	091H
	DB	093H
	DB	095H
	DB	097H
	DB	099H
	DB	09AH
	DB	09CH
	DB	09EH
	DB	0A0H
	DB	0A2H
	DB	0A3H
	DB	0A5H
	DB	0A7H
	DB	0A9H
	DB	0ABH
	DB	0ACH
	DB	0AEH
	DB	0B0H
	DB	0B2H
	DB	0B4H
	DB	0B5H
	DB	0B7H
	DB	0B9H
	DB	0BBH
	DB	0BDH
	DB	0BEH
	DB	0C0H
	DB	0C2H
	DB	0C4H
	DB	0C6H
	DB	0C7H
	DB	0C9H
	DB	0CBH
	DB	0CDH
	DB	0CFH
	DB	0D0H
	DB	0D2H
	DB	0D4H
	DB	0D6H
	DB	0D8H
	DB	0D9H
	DB	0DBH
	DB	0DDH
	DB	0DFH
	DB	0E1H
	DB	0E2H
	DB	0E4H
	DB	0E6H
	DB	0E8H
	DB	0EAH
	DB	0EBH
	DB	0EDH
	DB	0EFH
	DB	0F1H
	DB	0F3H
	DB	0F4H
	DB	0F6H
	DB	0F8H
	DB	0FAH
	DB	0FCH
	DB	0FDH
	DB	0FFH
	DB	0FFH
	DB	0FFH
	DB	0FFH
	DB	0FFH
	DB	0FFH
	DB	0FFH
	DB	0FFH
	DB	0FFH
	DB	0FFH
	DB	0FFH
	DB	0FFH
	DB	0FFH
	DB	0FFH
	DB	0FFH
	DB	0FFH
	DB	0FFH
	DB	0FFH
	DB	0FFH
	DB	0FFH
	DB	0FFH
	DB	0FFH
	DB	0FFH
	DB	0FFH
	DB	0FFH
	DB	0FFH
	DB	0FFH
	DB	0FFH
	DB	0FFH
	DB	0FFH
	DB	0FFH
	DB	0FFH
	DB	0FFH
	DB	0FFH
	DB	0FFH
	DB	0FFH
	DB	0FFH
	DB	0FFH
	DB	0FFH
	DB	0FFH
	DB	0FFH
	DB	0FFH
	DB	0FFH
	DB	0FFH
	DB	0FFH
	DB	0FFH
	DB	0FFH
	DB	0FFH
	DB	0FFH
	DB	0FFH
	DB	0FFH
	DB	0FFH
	DB	0FFH
	DB	0FFH
	DB	0FFH
	DB	0FFH
	DB	0FFH
	DB	0FFH
	DB	0FFH
	DB	0FFH
	DB	0FFH
	DB	0FFH
	DB	0FFH
	DB	0FFH
	DB	0FFH
	DB	0FFH
	DB	0FFH
	DB	0FFH
	DB	0FFH
	DB	0FFH
	DB	0FFH
	DB	0FFH
	DB	0FFH
	DB	0FFH
	DB	0FFH
	DB	0FFH
	DB	0FFH
	DB	0FFH
	DB	0FFH
	DB	0FFH
	DB	0FFH
	DB	0FFH
	DB	0FFH
	DB	0FFH
	DB	0FFH
	DB	0FFH
	DB	0FFH
	DB	0FFH
	DB	0FFH
	DB	0FFH
	DB	0FFH
	DB	0FFH
	DB	0FFH
	DB	0FFH
	DB	0FFH
	DB	0FFH
	DB	0FFH
	DB	0FFH
	DB	0FFH
	DB	0FFH
	DB	0FFH
	DB	0FFH
	DB	0FFH
	DB	0FFH
	DB	0FFH
	DB	0FFH
	DB	0FFH
	DB	0FFH
	DB	0FFH
	DB	0FFH
	DB	0FFH
	DB	0FFH
	DB	0FFH
	DB	0FFH
	DB	000H
	DB	001H
	DB	003H
	DB	005H
	DB	007H
	DB	009H
	DB	00BH
	DB	00DH
	DB	00FH
	DB	011H
	DB	013H
	DB	014H
	DB	016H
	DB	018H
	DB	01AH
	DB	01CH
	DB	01EH
	DB	020H
	DB	022H
	DB	024H
	DB	026H
	DB	027H
	DB	029H
	DB	02BH
	DB	02DH
	DB	02FH
	DB	031H
	DB	033H
	DB	035H
	DB	037H
	DB	039H
	DB	03AH
	DB	03CH
	DB	03EH
	DB	040H
	DB	042H
	DB	044H
	DB	046H
	DB	048H
	DB	04AH
	DB	04CH
	DB	04DH
	DB	04FH
	DB	051H
	DB	053H
	DB	055H
	DB	057H
	DB	059H
	DB	05BH
	DB	05DH
	DB	05FH
	DB	060H
	DB	062H
	DB	064H
	DB	066H
	DB	068H
	DB	06AH
	DB	06CH
	DB	06EH
	DB	070H
	DB	072H
	DB	073H
	DB	075H
	DB	077H
	DB	079H
	DB	07BH
	DB	07DH
	DB	07FH
	DB	081H
	DB	083H
	DB	085H
	DB	086H
	DB	088H
	DB	08AH
	DB	08CH
	DB	08EH
	DB	090H
	DB	092H
	DB	094H
	DB	096H
	DB	098H
	DB	099H
	DB	09BH
	DB	09DH
	DB	09FH
	DB	0A1H
	DB	0A3H
	DB	0A5H
	DB	0A7H
	DB	0A9H
	DB	0ABH
	DB	0ACH
	DB	0AEH
	DB	0B0H
	DB	0B2H
	DB	0B4H
	DB	0B6H
	DB	0B8H
	DB	0BAH
	DB	0BCH
	DB	0BEH
	DB	0BFH
	DB	0C1H
	DB	0C3H
	DB	0C5H
	DB	0C7H
	DB	0C9H
	DB	0CBH
	DB	0CDH
	DB	0CFH
	DB	0D1H
	DB	0D2H
	DB	0D4H
	DB	0D6H
	DB	0D8H
	DB	0DAH
	DB	0DCH
	DB	0DEH
	DB	0E0H
	DB	0E2H
	DB	0E4H
	DB	0E5H
	DB	0E7H
	DB	0E9H
	DB	0EBH
	DB	0EDH
	DB	0EFH
	DB	0F1H
	DB	0F3H
	DB	0F5H
	DB	0F7H
	DB	0F8H
	DB	0FAH
	DB	0FCH
	DB	0FEH
	DB	0FFH
	DB	0FFH
	DB	0FFH
	DB	0FFH
	DB	0FFH
	DB	0FFH
	DB	0FFH
	DB	0FFH
	DB	0FFH
	DB	0FFH
	DB	0FFH
	DB	0FFH
	DB	0FFH
	DB	0FFH
	DB	0FFH
	DB	0FFH
	DB	0FFH
	DB	0FFH
	DB	0FFH
	DB	0FFH
	DB	0FFH
	DB	0FFH
	DB	0FFH
	DB	0FFH
	DB	0FFH
	DB	0FFH
	DB	0FFH
	DB	0FFH
	DB	0FFH
	DB	0FFH
	DB	0FFH
	DB	0FFH
	DB	0FFH
	DB	0FFH
	DB	0FFH
	DB	0FFH
	DB	0FFH
	DB	0FFH
	DB	0FFH
	DB	0FFH
	DB	0FFH
	DB	0FFH
	DB	0FFH
	DB	0FFH
	DB	0FFH
	DB	0FFH
	DB	0FFH
	DB	0FFH
	DB	0FFH
	DB	0FFH
	DB	0FFH
	DB	0FFH
	DB	0FFH
	DB	0FFH
	DB	0FFH
	DB	0FFH
	DB	0FFH
	DB	0FFH
	DB	0FFH
	DB	0FFH
	DB	0FFH
	DB	0FFH
	DB	0FFH
	DB	0FFH
	DB	0FFH
	DB	0FFH
	DB	0FFH
	DB	0FFH
	DB	0FFH
	DB	0FFH
	DB	0FFH
	DB	0FFH
	DB	0FFH
	DB	0FFH
	DB	0FFH
	DB	0FFH
	DB	0FFH
	DB	0FFH
	DB	0FFH
	DB	0FFH
	DB	0FFH
	DB	0FFH
	DB	0FFH
	DB	0FFH
	DB	0FFH
	DB	0FFH
	DB	0FFH
	DB	0FFH
	DB	0FFH
	DB	0FFH
	DB	0FFH
	DB	0FFH
	DB	0FFH
	DB	0FFH
	DB	0FFH
	DB	0FFH
	DB	0FFH
	DB	0FFH
	DB	0FFH
	DB	0FFH
	DB	0FFH
	DB	0FFH
	DB	0FFH
	DB	0FFH
	DB	0FFH
	DB	0FFH
	DB	0FFH
	DB	0FFH
	DB	0FFH
	DB	0FFH
	DB	0FFH
	DB	0FFH
	DB	0FFH
	DB	0FFH
	DB	0FFH
	DB	0FFH
	DB	0FFH
	DB	0FFH
	DB	0FFH
	DB	0FFH
	DB	0FFH
	DB	000H
	DB	002H
	DB	004H
	DB	006H
	DB	008H
	DB	00AH
	DB	00CH
	DB	00EH
	DB	010H
	DB	012H
	DB	014H
	DB	016H
	DB	018H
	DB	01AH
	DB	01CH
	DB	01EH
	DB	020H
	DB	022H
	DB	024H
	DB	026H
	DB	028H
	DB	02AH
	DB	02CH
	DB	02EH
	DB	030H
	DB	032H
	DB	034H
	DB	036H
	DB	038H
	DB	03AH
	DB	03CH
	DB	03EH
	DB	040H
	DB	042H
	DB	044H
	DB	046H
	DB	048H
	DB	04AH
	DB	04CH
	DB	04EH
	DB	050H
	DB	052H
	DB	054H
	DB	056H
	DB	058H
	DB	05AH
	DB	05CH
	DB	05EH
	DB	060H
	DB	062H
	DB	064H
	DB	066H
	DB	068H
	DB	06AH
	DB	06CH
	DB	06EH
	DB	070H
	DB	072H
	DB	074H
	DB	076H
	DB	078H
	DB	07AH
	DB	07CH
	DB	07EH
	DB	080H
	DB	082H
	DB	084H
	DB	086H
	DB	088H
	DB	08AH
	DB	08CH
	DB	08EH
	DB	090H
	DB	092H
	DB	094H
	DB	096H
	DB	098H
	DB	09AH
	DB	09CH
	DB	09EH
	DB	0A0H
	DB	0A2H
	DB	0A4H
	DB	0A6H
	DB	0A8H
	DB	0AAH
	DB	0ACH
	DB	0AEH
	DB	0B0H
	DB	0B2H
	DB	0B4H
	DB	0B6H
	DB	0B8H
	DB	0BAH
	DB	0BCH
	DB	0BEH
	DB	0C0H
	DB	0C2H
	DB	0C4H
	DB	0C6H
	DB	0C8H
	DB	0CAH
	DB	0CCH
	DB	0CEH
	DB	0D0H
	DB	0D2H
	DB	0D4H
	DB	0D6H
	DB	0D8H
	DB	0DAH
	DB	0DCH
	DB	0DEH
	DB	0E0H
	DB	0E2H
	DB	0E4H
	DB	0E6H
	DB	0E8H
	DB	0EAH
	DB	0ECH
	DB	0EEH
	DB	0F0H
	DB	0F2H
	DB	0F4H
	DB	0F6H
	DB	0F8H
	DB	0FAH
	DB	0FCH
	DB	0FEH
	DB	0FFH
	DB	0FFH
	DB	0FFH
	DB	0FFH
	DB	0FFH
	DB	0FFH
	DB	0FFH
	DB	0FFH
	DB	0FFH
	DB	0FFH
	DB	0FFH
	DB	0FFH
	DB	0FFH
	DB	0FFH
	DB	0FFH
	DB	0FFH
	DB	0FFH
	DB	0FFH
	DB	0FFH
	DB	0FFH
	DB	0FFH
	DB	0FFH
	DB	0FFH
	DB	0FFH
	DB	0FFH
	DB	0FFH
	DB	0FFH
	DB	0FFH
	DB	0FFH
	DB	0FFH
	DB	0FFH
	DB	0FFH
	DB	0FFH
	DB	0FFH
	DB	0FFH
	DB	0FFH
	DB	0FFH
	DB	0FFH
	DB	0FFH
	DB	0FFH
	DB	0FFH
	DB	0FFH
	DB	0FFH
	DB	0FFH
	DB	0FFH
	DB	0FFH
	DB	0FFH
	DB	0FFH
	DB	0FFH
	DB	0FFH
	DB	0FFH
	DB	0FFH
	DB	0FFH
	DB	0FFH
	DB	0FFH
	DB	0FFH
	DB	0FFH
	DB	0FFH
	DB	0FFH
	DB	0FFH
	DB	0FFH
	DB	0FFH
	DB	0FFH
	DB	0FFH
	DB	0FFH
	DB	0FFH
	DB	0FFH
	DB	0FFH
	DB	0FFH
	DB	0FFH
	DB	0FFH
	DB	0FFH
	DB	0FFH
	DB	0FFH
	DB	0FFH
	DB	0FFH
	DB	0FFH
	DB	0FFH
	DB	0FFH
	DB	0FFH
	DB	0FFH
	DB	0FFH
	DB	0FFH
	DB	0FFH
	DB	0FFH
	DB	0FFH
	DB	0FFH
	DB	0FFH
	DB	0FFH
	DB	0FFH
	DB	0FFH
	DB	0FFH
	DB	0FFH
	DB	0FFH
	DB	0FFH
	DB	0FFH
	DB	0FFH
	DB	0FFH
	DB	0FFH
	DB	0FFH
	DB	0FFH
	DB	0FFH
	DB	0FFH
	DB	0FFH
	DB	0FFH
	DB	0FFH
	DB	0FFH
	DB	0FFH
	DB	0FFH
	DB	0FFH
	DB	0FFH
	DB	0FFH
	DB	0FFH
	DB	0FFH
	DB	0FFH
	DB	0FFH
	DB	0FFH
	DB	0FFH
	DB	0FFH
	DB	0FFH
	DB	0FFH
	DB	0FFH
	DB	0FFH
	DB	0FFH
	DB	0FFH
	DB	0FFH
	DB	0FFH
	DB	0FFH

Icons:
	DB	07FH
	DB	07FH
	DB	01FH
	DB	007H
	DB	007H
	DB	043H
	DB	063H
	DB	0E1H
	DB	0E1H
	DB	07FH
	DB	03FH
	DB	01FH
	DB	00FH
	DB	00FH
	DB	01FH
	DB	03FH
	DB	0FEH
	DB	0F8H
	DB	0F0H
	DB	0F0H
	DB	0F8H
	DB	0FCH
	DB	0FEH
	DB	0FFH
	DB	087H
	DB	0C7H
	DB	0C2H
	DB	0C0H
	DB	0E0H
	DB	0F0H
	DB	0FEH
	DB	0FEH
	DB	0E1H
	DB	0E1H
	DB	0E1H
	DB	0E1H
	DB	061H
	DB	0E1H
	DB	0E1H
	DB	0E1H
	DB	0E1H
	DB	0E1H
	DB	0E1H
	DB	080H
	DB	0C0H
	DB	0C0H
	DB	0E1H
	DB	0F3H
	DB	0F3H
	DB	0E1H
	DB	0C0H
	DB	0C0H
	DB	080H
	DB	0E1H
	DB	0E1H
	DB	0E1H
	DB	0E1H
	DB	0E1H
	DB	0E1H
	DB	0E1H
	DB	0E1H
	DB	0E1H
	DB	0E1H
	DB	0E1H
	DB	0E1H
	DB	0E1H
	DB	0E1H
	DB	083H
	DB	087H
	DB	00FH
	DB	01FH
	DB	00FH
	DB	007H
	DB	083H
	DB	0C1H
	DB	080H
	DB	0C0H
	DB	0C0H
	DB	0E1H
	DB	0F3H
	DB	087H
	DB	087H
	DB	087H
	DB	0C1H
	DB	0E0H
	DB	0F0H
	DB	0F8H
	DB	0F8H
	DB	0F0H
	DB	0C1H
	DB	0C3H
	DB	005H
	DB	003H
	DB	003H
	DB	087H
	DB	0CFH

Str:
	DB  'O' ,'n' ,'c' ,'e' ,000H

	DB  'S' ,'e' ,'q' ,'u' ,000H

	DB  'R' ,'a' ,'n' ,'d' ,000H



	RSEG  ?C_INITSEG
	DB	044H
	DW	SampleRate
	DB	000H,000H,000H,000H	; long

	DB	041H
	DW	BytePerSample
	DB	000H

	DB	044H
	DW	ByteRate
	DB	000H,000H,000H,000H	; long

	DB	041H
	DW	Channel
	DB	000H

	DB	041H
	DW	RealData
	DB	000H

	DB	042H
	DW	rn
	DW	00001H

	DB	041H
	DW	File_Num
	DB	000H

	DB	044H
	DW	tick
	DB	000H,000H,000H,000H	; long

	DB	042H
	DW	Cnt
	DW	00000H

	DB	041H
	DW	bflg
	DB	000H

	DB	041H
	DW	B_Play
	DB	000H

	DB	041H
	DW	Next_Flg
	DB	000H

	DB	041H
	DW	Prev_Flg
	DB	000H

	DB	041H
	DW	Pause_Flg
	DB	000H

	DB	041H
	DW	Play_Again_Auto
	DB	000H

	DB	041H
	DW	Play_Again_Manu
	DB	000H

	DB	041H
	DW	Keyleft
	DB	000H

	DB	041H
	DW	Keyright
	DB	000H

	DB	041H
	DW	Vol
	DB	00AH

	DB	042H
	DW	UpdateInfo
	DW	00000H

	DB	042H
	DW	UpdateKeybd
	DW	00000H

	DB	044H
	DW	PlayTime
	DB	000H,000H,000H,000H	; long

	DB	041H
	DW	Second
	DB	000H

	DB	041H
	DW	Minute
	DB	000H

	DB	041H
	DW	tmp
	DB	000H

	DB	044H
	DW	JmpLenth
	DB	000H,000H,000H,000H	; long

	DB	044H
	DW	Process
	DB	000H,000H,000H,000H	; 0.000000

	DB	044H
	DW	File_Size
	DB	000H,000H,000H,000H	; long

	DB	044H
	DW	File_CurrentOffset
	DB	000H,000H,000H,000H	; long

	DB	041H
	DW	Play_Mode
	DB	001H

	DB	041H
	DW	index
	DB	000H

	DB	041H
	DW	k
	DB	001H

	DB	041H
	DW	k1_
	DB	000H

	DB	042H
	DW	pos
	DW	00000H

	DB	042H
	DW	pcm16
	DW	00000H

; #include "_STC8X_.h"
; #include "TYPE.h"
; #include "oled.h"
; #include "ff.h"
; #include "SD.h"
; #include "Graphic.h"
; #include <stdlib.h>
; #include <string.h>
; #include <stdio.h>
; #include "Key.h"
; #include "Volume.h"
; #define MAIN_Fosc 40000000L // 
; //Cadio
; 
; sbit Wifi = P2 ^ 0;
; sbit Audio = P2 ^ 1;
; sbit laser = P1 ^ 3;
; sbit light = P1 ^ 7;
; sbit flash_cs1 = P3 ^ 5;
; sbit flash_cs2 = P2 ^ 3;
; sbit sd_cs1 = P1 ^ 6;
; 
; 
; /*----------------Wav----------------*/
; 
; //wav
; typedef struct
; {
;     uint8_t ChunkID[4];
;     uint8_t ChunkSize[4];
;     uint8_t Format[4];
;     uint8_t Subchunk1ID[4];
;     uint8_t Sbuchunk1Size[4];
;     uint8_t AudioFormat[2];
;     uint8_t NumChannels[2];
;     uint8_t SampleRate[4];
;     uint8_t ByteRate[4];
;     uint8_t BlockAlign[2];
;     uint8_t BitPerSample[2];
;     uint8_t Subchunk2ID[4];
;     uint8_t Subchunk2Size[4];
; } Wave;
; Wave Wave_FHD;
; 
; 
; uint32_t SampleRate = 0;
; uint8_t BytePerSample = 0;
; uint32_t ByteRate = 0;
; uint8_t Channel = 0;
; uint8_t RealData = 0;
; 
; /* ------------------------------------------- */
; 
; /// @brief 1000ms
; /// @param void
; 

	RSEG  ?PR?MAIN
Com00D1:
L?0210:
	USING	0
L?0211:
	MOV  	DPTR,#res?1062
L?0212:
	MOVX 	A,@DPTR
	MOV  	R0,A
	INC  	DPTR
L?0213:
	MOVX 	A,@DPTR
	MOV  	R1,A
	INC  	DPTR
	MOVX 	A,@DPTR
	MOV  	R2,A
	INC  	DPTR
	MOVX 	A,@DPTR
	RET  	
L?0215:
	USING	0
L?0216:
	MOV  	DPTR,#dat?1059
L?0217:
	MOVX 	A,@DPTR
	MOV  	R3,A
	INC  	DPTR
	MOVX 	A,@DPTR
	MOV  	R2,A
	INC  	DPTR
	MOVX 	A,@DPTR
	MOV  	R1,A
	RET  	
L?0218:
	USING	0
L?0219:
	MOV  	DPTR,#File_Size
L?0220:
	MOVX 	A,@DPTR
	MOV  	R4,A
	INC  	DPTR
	MOVX 	A,@DPTR
	MOV  	R5,A
	INC  	DPTR
	MOVX 	A,@DPTR
	MOV  	R6,A
	INC  	DPTR
	MOVX 	A,@DPTR
	RET  	
L?0221:
	USING	0
L?0222:
	MOV  	DPTR,#Vol
	MOVX 	A,@DPTR
	MOV  	B,#0AH
	MUL  	AB
	MOV  	R7,A
	MOV  	R6,B
	CLR  	A
	MOV  	R4,A
	MOV  	R5,A
	MOV  	DPTR,#?_OLED_ShowNum?BYTE+02H
	LCALL	?C?LSTXDATA
	MOV  	A,#03H
L?0223:
	MOV  	DPTR,#?_OLED_ShowNum?BYTE+06H
	MOVX 	@DPTR,A
	INC  	DPTR
	MOV  	A,#010H
	MOVX 	@DPTR,A
	RET  	
L?0224:
	USING	0
L?0225:
	MOV  	A,R3
	ORL  	A,R7
	MOV  	R7,A
	MOV  	A,R2
	ORL  	A,R6
	MOV  	R6,A
	MOV  	A,R1
	ORL  	A,R5
	MOV  	R5,A
	MOV  	A,R0
	ORL  	A,R4
L?0226:
	MOV  	R4,A
	MOV  	DPTR,#res?1062
	LJMP 	?C?LSTXDATA
L?0227:
	USING	0
L?0228:
	ADD  	A,DPL
	MOV  	DPL,A
	CLR  	A
	ADDC 	A,DPH
	MOV  	DPH,A
	CLR  	A
	MOVC 	A,@A+DPTR
	MOV  	DPTR,#0FEF8H
	MOVX 	@DPTR,A
	MOV  	DPTR,#Cnt+01H
	MOVX 	A,@DPTR
	RET  	
L?0229:
	USING	0
	MOVX 	A,@DPTR
	MOV  	B,#0AH
	DIV  	AB
	MOV  	R7,B
L?0230:
	CLR  	A
	MOV  	R4,A
	MOV  	R5,A
	MOV  	R6,A
	MOV  	DPTR,#?_OLED_ShowNum?BYTE+02H
	LCALL	?C?LSTXDATA
	MOV  	DPTR,#?_OLED_ShowNum?BYTE+06H
	MOV  	A,#01H
	MOVX 	@DPTR,A
	INC  	DPTR
	MOV  	A,#010H
	MOVX 	@DPTR,A
	MOV  	R5,#06H
	RET  	
L?0231:
	USING	0
L?0232:
	MOV  	A,R3
L?0233:
	MOVX 	@DPTR,A
	INC  	DPTR
	MOV  	A,R2
	MOVX 	@DPTR,A
	INC  	DPTR
	MOV  	A,R1
	MOVX 	@DPTR,A
	RET  	
L?0234:
	USING	0
	MOV  	DPTR,#?_Graphic_Printf?BYTE+05H
L?0235:
	MOV  	A,#0FFH
	MOVX 	@DPTR,A
	INC  	DPTR
	MOV  	A,#HIGH (?SC_51)
	MOVX 	@DPTR,A
	MOV  	A,#LOW (?SC_51)
L?0236:
	INC  	DPTR
	MOVX 	@DPTR,A
	INC  	DPTR
	MOV  	A,#01H
	MOVX 	@DPTR,A
	RET  	
L?0237:
	USING	0
	LCALL	?C?CLDOPTR
	MOV  	R0,#08H
L?0238:
	MOV  	R7,A
	CLR  	A
	MOV  	R4,A
	MOV  	R5,A
	MOV  	R6,A
	LJMP 	?C?LSHL
L?0239:
	USING	0
L?0240:
	ADD  	A,#0D4H
	MOV  	R7,A
	MOV  	A,R6
	ADDC 	A,#0FFH
	MOV  	R6,A
	MOV  	A,R5
	ADDC 	A,#0FFH
	MOV  	R5,A
	MOV  	A,R4
	ADDC 	A,#0FFH
	MOV  	R4,A
	RET  	
L?0243:
	USING	0
	MOV  	DPL,R7
	MOV  	DPH,R6
	MOV  	A,R5
	LCALL	?C?CSTOPTR
L?0244:
	MOV  	DPTR,#i?1271+01H
	MOVX 	A,@DPTR
	INC  	A
	MOVX 	@DPTR,A
	RET  	
L?0245:
	USING	0
	ADDC 	A,R6
	MOV  	DPH,A
	MOVX 	A,@DPTR
L?0246:
	MOV  	R5,A
	RLC  	A
	SUBB 	A,ACC
	MOV  	R4,A
	MOV  	A,R5
	ORL  	A,R4
	RET  	
L?0247:
	USING	0
L?0248:
	CLR  	A
L?0249:
	MOV  	DPTR,#i?1271
	MOVX 	@DPTR,A
	INC  	DPTR
	MOVX 	@DPTR,A
	RET  	
L?0250:
	USING	0
L?0251:
	MOV  	DPTR,#i?1271
	MOVX 	A,@DPTR
	MOV  	R6,A
	INC  	DPTR
	MOVX 	A,@DPTR
	MOV  	R7,A
	RET  	
L?0252:
	USING	0
	MOV  	R3,#01H
L?0253:
	MOV  	DPTR,#?_MakeBytes?BYTE+04H
	MOV  	A,#01H
	MOVX 	@DPTR,A
	RET  	
L?0254:
	USING	0
	MOV  	R3,#0FFH
L?0255:
	MOV  	DPTR,#?_OLED_ShowString?BYTE+05H
	MOV  	A,#010H
	MOVX 	@DPTR,A
	RET  	
L?0256:
	USING	0
	MOVX 	A,@DPTR
	MOV  	R6,A
	INC  	DPTR
	MOVX 	A,@DPTR
	MOV  	R7,A
	CLR  	A
	MOV  	R4,A
	MOV  	R5,A
	MOV  	R3,#040H
	MOV  	R2,#09CH
	MOV  	R1,A
	MOV  	R0,A
	CLR  	C
	LJMP 	?C?SLCMP
L?0257:
	USING	0
L?0258:
	MOV  	DPTR,#Vol
	MOVX 	A,@DPTR
	MOV  	R7,#00H
	MOV  	R6,A
	MOV  	A,R7
	RET  	
L?0259:
	USING	0
	MOV  	R0,#LOW (?checkfile?BYTE)
	MOV  	R4,#HIGH (?checkfile?BYTE)
	MOV  	R5,#01H
	MOV  	R3,#01H
	MOV  	R6,#01H
	MOV  	R7,#016H
	LJMP 	?C?COPY
L?0260:
	USING	0
L?0261:
	MOV  	DPTR,#Cnt
	MOVX 	A,@DPTR
	MOV  	R6,A
	INC  	DPTR
	MOVX 	A,@DPTR
	RET  	
L?0262:
	USING	0
	MOV  	DPTR,#lenth?1060
	MOVX 	A,@DPTR
	CLR  	C
L?0263:
	SUBB 	A,#04H
	MOV  	A,#080H
	SUBB 	A,#080H
	RET  	
L?0264:
	USING	0
	INC  	DPTR
	MOV  	A,#HIGH (wav_file)
	MOVX 	@DPTR,A
	INC  	DPTR
	MOV  	A,#LOW (wav_file)
	MOVX 	@DPTR,A
	MOV  	R3,#01H
	MOV  	R5,#010H
	MOV  	R4,#00H
	RET  	
L?0265:
	USING	0
	MOV  	R4,A
L?0266:
	MOV  	R3,#01H
	MOV  	R2,#HIGH (testfile)
	MOV  	R1,#LOW (testfile)
	RET  	
L?0267:
	USING	0
L?0268:
	MOV  	R0,AR4
	MOV  	R1,AR5
	MOV  	R2,AR6
	MOV  	R3,AR7
	RET  	
L?0269:
	USING	0
	INC  	DPTR
	MOVX 	A,@DPTR
	MOV  	B,#08H
	MUL  	AB
	MOV  	R7,A
	MOV  	DPTR,#?_OLED_ShowChar?BYTE+03H
	MOV  	A,#010H
	MOVX 	@DPTR,A
	RET  	
L?0270:
	USING	0
L?0271:
	MOV  	DPTR,#i?1271
	MOVX 	A,@DPTR
	INC  	A
	MOVX 	@DPTR,A
	RET  	
L?0272:
	USING	0
	MOV  	DPTR,#Cnt
L?0273:
	MOVX 	@DPTR,A
	INC  	DPTR
	MOVX 	@DPTR,A
	MOV  	DPTR,#B_Play
	RET  	
L?0274:
	USING	0
	MOV  	DPTR,#lenth?1060
	MOVX 	A,@DPTR
	CLR  	C
	SUBB 	A,#01H
	MOV  	A,#080H
	SUBB 	A,#080H
	RET  	
L?0275:
	USING	0
	MOV  	DPTR,#lenth?1060
	MOVX 	A,@DPTR
	CLR  	C
	SUBB 	A,#02H
	MOV  	A,#080H
	SUBB 	A,#080H
	RET  	
L?0276:
	USING	0
	MOV  	DPTR,#lenth?1060
	MOVX 	A,@DPTR
	CLR  	C
	SUBB 	A,#03H
	MOV  	A,#080H
	SUBB 	A,#080H
	RET  	
L?0277:
	USING	0
L?0278:
	MOV  	DPTR,#?_OLED_Printf?BYTE+03H
	MOV  	A,#0FFH
	MOVX 	@DPTR,A
	INC  	DPTR
	RET  	
L?0279:
	USING	0
L?0280:
	MOV  	DPTR,#?_Graphic_Printf?BYTE+05H
	MOV  	A,#0FFH
	MOVX 	@DPTR,A
	INC  	DPTR
	RET  	
L?0282:
	USING	0
	MOV  	A,#LOW (__fno?1273+016H)
	ADD  	A,R7
	MOV  	DPL,A
	MOV  	A,#HIGH (__fno?1273+016H)
	ADDC 	A,R6
	MOV  	DPH,A
	RET  	
L?0283:
	USING	0
	MOV  	A,#LOW (__fno?1273+09H)
	ADD  	A,R7
	MOV  	DPL,A
	MOV  	A,#HIGH (__fno?1273+09H)
	ADDC 	A,R6
	MOV  	DPH,A
	RET  	
L?0284:
	USING	0
	ADD  	A,R7
	MOV  	R7,A
	MOV  	A,R2
	ADDC 	A,R6
	MOV  	R6,A
	MOV  	A,R1
	ADDC 	A,R5
	MOV  	R5,A
	MOV  	A,R0
	ADDC 	A,R4
	RET  	
L?0285:
	USING	0
	ADD  	A,#02H
	MOVX 	@DPTR,A
	MOV  	DPTR,#Cnt
	MOVX 	A,@DPTR
	ADDC 	A,#00H
	MOVX 	@DPTR,A
	RET  	
L?0286:
	USING	0
	MOV  	DPTR,#File_Num
	MOVX 	A,@DPTR
	MOV  	R7,A
	MOV  	DPTR,#k
	MOVX 	A,@DPTR
	RET  	
L?0287:
	USING	0
	INC  	DPTR
	MOVX 	@DPTR,A
	INC  	DPTR
	MOV  	A,#02H
	MOVX 	@DPTR,A
	INC  	DPTR
	CLR  	A
	MOVX 	@DPTR,A
	RET  	
L?0288:
	USING	0
	CLR  	A
	MOV  	R7,#02H
	MOV  	R6,A
	MOV  	R5,A
	MOV  	R4,A
	MOV  	DPTR,#JmpLenth
	RET  	
L?0289:
	USING	0
	MOV  	DPTR,#BytePerSample
	MOVX 	A,@DPTR
	MOV  	R5,A
	MOV  	R4,#00H
	XRL  	A,#02H
	RET  	
L?0290:
	USING	0
	ADD  	A,#LOW (Volume+080H)
	MOV  	DPL,A
	MOV  	A,#HIGH (Volume+080H)
	ADDC 	A,R6
	MOV  	DPH,A
	RET  	
L?0291:
	USING	0
	ADD  	A,#LOW (Volume)
	MOV  	DPL,A
	MOV  	A,#HIGH (Volume)
	ADDC 	A,R6
	MOV  	DPH,A
	RET  	
; END OF Com00D1

; void Delay1000ms(void) //@40.000MHz

	RSEG  ?PR?Delay1000ms?MAIN
Delay1000ms:
			; SOURCE LINE # 57
; {
			; SOURCE LINE # 58
;     
;     unsigned char data i, j, k;
;     _nop_();
			; SOURCE LINE # 61
	NOP  	
;     i = 203;
			; SOURCE LINE # 62
	MOV  	i?040,#0CBH
;     j = 236;
			; SOURCE LINE # 63
	MOV  	j?041,#0ECH
;     k = 131;
			; SOURCE LINE # 64
	MOV  	k?042,#083H
;     do
;     {
			; SOURCE LINE # 66
;         do
;         {
			; SOURCE LINE # 68
?C0007:
;             while (--k)
			; SOURCE LINE # 69
	DJNZ 	k?042,?C0007
;                 ;
;         } while (--j);
			; SOURCE LINE # 71
	DJNZ 	j?041,?C0007
;     } while (--i);
			; SOURCE LINE # 72
	DJNZ 	i?040,?C0007
; }
			; SOURCE LINE # 73
	RET  	
; END OF Delay1000ms

; 
; /// @brief 100ms
; /// @param void
; void Delay100ms(void) //@40.000MHz

	RSEG  ?PR?Delay100ms?MAIN
Delay100ms:
			; SOURCE LINE # 77
; {
			; SOURCE LINE # 78
;     unsigned char data i, j, k;
; 
;     _nop_();
			; SOURCE LINE # 81
	NOP  	
;     i = 21;
			; SOURCE LINE # 82
	MOV  	i?143,#015H
;     j = 75;
			; SOURCE LINE # 83
	MOV  	j?144,#04BH
;     k = 189;
			; SOURCE LINE # 84
	MOV  	k?145,#0BDH
;     do
;     {
			; SOURCE LINE # 86
;         do
;         {
			; SOURCE LINE # 88
?C0016:
;             while (--k)
			; SOURCE LINE # 89
	DJNZ 	k?145,?C0016
;                 ;
;         } while (--j);
			; SOURCE LINE # 91
	DJNZ 	j?144,?C0016
;     } while (--i);
			; SOURCE LINE # 92
	DJNZ 	i?143,?C0016
; }
			; SOURCE LINE # 93
	RET  	
; END OF Delay100ms

; 
; /// @brief ?
; /// @param void
; void Sys_Init(void)

	RSEG  ?PR?Sys_Init?MAIN
Sys_Init:
	USING	0
			; SOURCE LINE # 97
; {
			; SOURCE LINE # 98
;     P0M0 = 0x00;
			; SOURCE LINE # 99
	CLR  	A
	MOV  	P0M0,A
;     P0M1 = 0x00;
			; SOURCE LINE # 100
	MOV  	P0M1,A
;     P1M1 = 0x3f;
			; SOURCE LINE # 101
	MOV  	P1M1,#03FH
;     P1M0 = 0x00; // 
			; SOURCE LINE # 102
	MOV  	P1M0,A
;     P2M0 = 0x00;
			; SOURCE LINE # 103
	MOV  	P2M0,A
;     P2M1 = 0x00;
			; SOURCE LINE # 104
	MOV  	P2M1,A
;     P3M0 = 0x00;
			; SOURCE LINE # 105
	MOV  	P3M0,A
;     P3M1 = 0x00;
			; SOURCE LINE # 106
	MOV  	P3M1,A
;     P5M0 = 0xff;
			; SOURCE LINE # 107
	MOV  	P5M0,#0FFH
;     P5M1 = 0x00;
			; SOURCE LINE # 108
	MOV  	P5M1,A
; 
;     Wifi = 0;
			; SOURCE LINE # 110
	CLR  	Wifi
;     laser = 0;
			; SOURCE LINE # 111
	CLR  	laser
;     Audio = 0;
			; SOURCE LINE # 112
	CLR  	Audio
;     light = 0;
			; SOURCE LINE # 113
	CLR  	light
;     flash_cs1 = 1;
			; SOURCE LINE # 114
	SETB 	flash_cs1
;     flash_cs2 = 1;
			; SOURCE LINE # 115
	SETB 	flash_cs2
;     OLED_Init();
			; SOURCE LINE # 116
	LCALL	OLED_Init
;     OLED_Display_On();
			; SOURCE LINE # 117
	LCALL	OLED_Display_On
;     OLED_ColorTurn(0);
			; SOURCE LINE # 118
	CLR  	A
	MOV  	R7,A
	LCALL	_OLED_ColorTurn
;     OLED_Clear();
			; SOURCE LINE # 119
	LJMP 	OLED_Clear
; END OF Sys_Init

;     //Delay1000ms();
; }
; /* ----------------------------- */
; FATFS SD_FS; //
; FRESULT res, res1, res2; //
; FIL testfile;//
; DIR dir;//
; FILINFO fno;//
; uint16_t rn = 1;//
; uint8_t path[300];//
; uint8_t File_Num = 0;//
; 
; /* ------------------------------------------- */
; 
; uint32_t tick = 0;//
; 
; 
; /// @brief ?1
; /// @param reload  set timer1 reload value
; /// @return void
; void Timer1_Config(u16 reload) // reload/Hz

	RSEG  ?PR?_Timer1_Config?MAIN
_Timer1_Config:
	USING	0
			; SOURCE LINE # 140
;---- Variable 'reload?346' assigned to Register 'R4/R5' ----
	MOV  	R5,AR7
	MOV  	R4,AR6
; {
			; SOURCE LINE # 141
;     TR1 = 0;      // 
			; SOURCE LINE # 142
	CLR  	TR1
;     AUXR |= 0x40; // ?1T
			; SOURCE LINE # 143
	ORL  	AUXR,#040H
;     TMOD &= 0x0F; // ?
			; SOURCE LINE # 144
	ANL  	TMOD,#0FH
;     reload = 0xffff - reload;
			; SOURCE LINE # 145
	CLR  	C
	MOV  	A,#0FFH
	SUBB 	A,R5
	MOV  	R5,A
	MOV  	A,#0FFH
	SUBB 	A,R4
;     TH1 = (uint8_t)(reload >> 8);
			; SOURCE LINE # 146
	MOV  	TH1,A
;     TL1 = (uint8_t)(reload);
			; SOURCE LINE # 147
	MOV  	R7,AR5
	MOV  	TL1,R7
;     ET1 = 1; // 
			; SOURCE LINE # 148
	SETB 	ET1
;     TR1 = 1; // 
			; SOURCE LINE # 149
	SETB 	TR1
;     return;
; }
			; SOURCE LINE # 151
	RET  	
; END OF _Timer1_Config

; 
; /// @brief PWM
; /// @param void
; void PWM_Config(void)

	RSEG  ?PR?PWM_Config?MAIN
PWM_Config:
			; SOURCE LINE # 155
; {
			; SOURCE LINE # 156
;     P_SW2 |= 0x80; // SFR enable
			; SOURCE LINE # 157
	ORL  	P_SW2,#080H
; 
;     PWMB_PSCR = 0x0000; // ,  Fck_cnt = Fck_psc/(PSCR[15:0}+1), PWM = SYSclk/((PSCR+1)*(AAR+1)), PWM = SYSclk/((PSCR+1)*(AAR+1)*2).
			; SOURCE LINE # 159
	MOV  	DPTR,#0FEF0H
	CLR  	A
	MOVX 	@DPTR,A
	INC  	DPTR
	MOVX 	@DPTR,A
;     PWMB_DTR = 00;      // ,   n=0~127: DTR= n T,   0x80 ~(0x80+n), n=0~63: DTR=(64+n)*2T,
			; SOURCE LINE # 160
	MOV  	DPTR,#0FEFEH
	MOVX 	@DPTR,A
;                         // PWMB  0xc0 ~(0xc0+n), n=0~31: DTR=(32+n)*8T,   0xE0 ~(0xE0+n), n=0~31: DTR=(32+n)*16T,
;     PWMB_ARR = 256;     // , PWM
			; SOURCE LINE # 162
	MOV  	DPTR,#0FEF2H
	INC  	A
	MOVX 	@DPTR,A
	INC  	DPTR
	CLR  	A
	MOVX 	@DPTR,A
; 
;     PWMB_CCMR2 = 0x68; // , PWM1, 
			; SOURCE LINE # 164
	MOV  	DPTR,#0FEE9H
	MOV  	A,#068H
	MOVX 	@DPTR,A
;     PWMB_CCR2L = 128;  // , 
			; SOURCE LINE # 165
	MOV  	DPTR,#0FEF8H
	MOV  	A,#080H
	MOVX 	@DPTR,A
;     PWMB_CCER1 = 0x10; // ? PWM6 PWM5
			; SOURCE LINE # 166
	MOV  	DPTR,#0FEECH
	MOV  	A,#010H
	MOVX 	@DPTR,A
; 
;     PWMB_BKR = 0x80; // ? 
			; SOURCE LINE # 168
	MOV  	DPTR,#0FEFDH
	MOV  	A,#080H
	MOVX 	@DPTR,A
;     PWMB_IER = 0x00; // 
			; SOURCE LINE # 169
	MOV  	DPTR,#0FEE4H
	CLR  	A
	MOVX 	@DPTR,A
;     PWMB_CR1 = 0x81; // , , , , bit7=1:(), =0:
			; SOURCE LINE # 170
	MOV  	DPTR,#0FEE0H
	MOV  	A,#081H
	MOVX 	@DPTR,A
; 
;     PWMB_ENO = 0x04; // IOPWM,
			; SOURCE LINE # 172
	MOV  	DPTR,#0FEB5H
	MOV  	A,#04H
	MOVX 	@DPTR,A
;     PWMB_PS = 0x04;  // IO
			; SOURCE LINE # 173
	INC  	DPTR
	MOVX 	@DPTR,A
;     // P5^4?
; }
			; SOURCE LINE # 175
	RET  	
; END OF PWM_Config

; 
; 
; /* ------------------------------- */
; #define MusicBufferSize 512
; uint16_t Cnt = 0;
; uint8_t bflg = 0, B_Play = 0;
; uint8_t MusicBuffer0[MusicBufferSize + 2], MusicBuffer1[MusicBufferSize + 2];
; 
; 
; /* ----------------------------------------- */
; 
; //
; #define KEY_UP 0x44     //
; #define KEY_DOWN 0x49   //
; #define KEY_RIGHT 0x4a  //shift
; #define KEY_LEFT 0x48   // (shift)
; #define KEY_BACK 0x45   //
; #define KEY_EQUAL 0x3d  //
; #define KEY_SHIFT 0x41  //Shift+ left/right
; 
; 
; 
; 
; uint8_t Next_Flg = 0, Prev_Flg = 0, Pause_Flg = 0; //
; uint8_t Play_Again_Auto = 0, Play_Again_Manu = 0;  // 
; uint8_t Keyleft = 0, Keyright = 0; //
; uint8_t Vol = 10; // 
; uint16_t UpdateInfo = 0;  //
; uint16_t UpdateKeybd = 0; //
; uint32_t PlayTime = 0;    //
; uint8_t Second = 0, Minute = 0,tmp = 0; //  
; 
; uint32_t JmpLenth = 0; //
; float Process = 0;     //       
; uint32_t File_Size = 0;   //
; uint32_t File_CurrentOffset = 0;//
; 
; uint8_t Play_Mode = 1;//  //1 2 3
; 
; 
; /*------------------------------------------------------------*/
; 
; 
; //
; int i; //
; uint8_t index = 0, k = 1, k1_ = 0; //indexk
; 
; 
; typedef struct
; {
;     uint8_t name[256];
;     uint8_t altname[14];
;     uint8_t lenth;
; } Item;
; Item wav_file;
; 
; /// @brief ?ASCII??
; /// @param uint8_t c
; /// @return true or false
; uint8_t __is_ascii(uint8_t c)

	RSEG  ?PR?___is_ascii?MAIN
___is_ascii:
	USING	0
			; SOURCE LINE # 235
;---- Variable 'c?547' assigned to Register 'R7' ----
; {
			; SOURCE LINE # 236
;     return (c >= 'a' && c <= 'z') || (c >= 'A' && c <= 'Z') || (c >= '0' && c <= '9') || (c == '_') || (c == '.') || (c == '-');
			; SOURCE LINE # 237
	MOV  	A,R7
	CLR  	C
	SUBB 	A,#061H
	JC   	?C0025
	MOV  	A,R7
	SETB 	C
	SUBB 	A,#07AH
	JC   	?C0024
?C0025:
	MOV  	A,R7
	CLR  	C
	SUBB 	A,#041H
	JC   	?C0026
	MOV  	A,R7
	SETB 	C
	SUBB 	A,#05AH
	JC   	?C0024
?C0026:
	MOV  	A,R7
	CLR  	C
	SUBB 	A,#030H
	JC   	?C0027
	MOV  	A,R7
	SETB 	C
	SUBB 	A,#039H
	JC   	?C0024
?C0027:
	MOV  	A,R7
	XRL  	A,#05FH
	JZ   	?C0024
	MOV  	A,R7
	XRL  	A,#02EH
	JZ   	?C0024
	MOV  	A,R7
	CJNE 	A,#02DH,?C0022
?C0024:
	MOV  	R7,#01H
	RET  	
?C0022:
	MOV  	R7,#00H
?C0023:
; }
			; SOURCE LINE # 238
	RET  	
; END OF ___is_ascii

; 
; /// @brief ?
; /// @param uint8_t *str
; /// @return ?
; uint8_t __strlen(uint8_t *str)

	RSEG  ?PR?___strlen?MAIN
___strlen:
	USING	0
			; SOURCE LINE # 243
	MOV  	DPTR,#str?648
	LCALL	L?0231
; {
			; SOURCE LINE # 244
;     uint8_t i;
;     for (i = 0; str[i] != '\0'; i++)
			; SOURCE LINE # 246
;---- Variable 'i?649' assigned to Register 'R7' ----
	CLR  	A
	MOV  	R7,A
?C0029:
	MOV  	DPTR,#str?648
	LCALL	L?0217
	MOV  	DPL,R7
	MOV  	DPH,#00H
	LCALL	?C?CLDOPTR
	JZ   	?C0030
	INC  	R7
	SJMP 	?C0029
?C0030:
;         ;
;     return i;
			; SOURCE LINE # 248
; }
			; SOURCE LINE # 249
	RET  	
; END OF ___strlen

; 
; /// @brief 
; /// @param uint8_t *s
; /// @param uint8_t lenth
; /// @param uint8_t value
; /// @return void
; void __memset(uint8_t *s, uint8_t lenth, uint8_t value)

	RSEG  ?PR?___memset?MAIN
___memset:
	USING	0
			; SOURCE LINE # 256
	MOV  	DPTR,#s?750
	LCALL	L?0231
	INC  	DPTR
	MOV  	A,R5
	MOVX 	@DPTR,A
; {
			; SOURCE LINE # 257
;     uint16_t i = 0;
			; SOURCE LINE # 258
;---- Variable 'i?753' assigned to Register 'R6/R7' ----
	CLR  	A
	MOV  	R7,A
	MOV  	R6,A
;     for (i = 0; i < lenth; i++)
			; SOURCE LINE # 259
?C0033:
	MOV  	DPTR,#lenth?751
	MOVX 	A,@DPTR
	MOV  	R5,A
	CLR  	C
	MOV  	A,R7
	SUBB 	A,R5
	MOV  	A,R6
	SUBB 	A,#00H
	JNC  	?C0036
;         *(s + i) = value;
			; SOURCE LINE # 260
	INC  	DPTR
	MOVX 	A,@DPTR
	MOV  	R5,A
	MOV  	DPTR,#s?750
	LCALL	L?0217
	MOV  	DPL,R7
	MOV  	DPH,R6
	MOV  	A,R5
	LCALL	?C?CSTOPTR
	INC  	R7
	CJNE 	R7,#00H,?C0187
	INC  	R6
?C0187:
	SJMP 	?C0033
;     return;
; }
			; SOURCE LINE # 262
?C0036:
	RET  	
; END OF ___memset

; 
; /// @brief .wav
; /// @param FILINFO f
; /// @return true or false
; uint8_t checkfile(FILINFO f)

	RSEG  ?PR?checkfile?MAIN
checkfile:
	USING	0
			; SOURCE LINE # 267
; {
			; SOURCE LINE # 268
;     uint8_t i;
;     uint8_t l = strlen(f.altname);
			; SOURCE LINE # 270
	MOV  	R3,#01H
	MOV  	R2,#HIGH (f?854+09H)
	MOV  	R1,#LOW (f?854+09H)
	LCALL	_strlen
;---- Variable 'l?856' assigned to Register 'R7' ----
;     if(l <=4 ) return 0;
			; SOURCE LINE # 271
	MOV  	A,R7
	SETB 	C
	LCALL	L?0263
	JNC  	?C0037
	MOV  	R7,#00H
	RET  	
?C0037:
;     if ((f.altname[l - 3] != 'W') || (f.altname[l - 2] != 'A') || (f.altname[l - 1] != 'V')){
			; SOURCE LINE # 272
	MOV  	A,#LOW (f?854+06H)
	ADD  	A,R7
	MOV  	DPL,A
	CLR  	A
	ADDC 	A,#HIGH (f?854+06H)
	MOV  	DPH,A
	MOVX 	A,@DPTR
	CJNE 	A,#057H,?C0040
	MOV  	A,#LOW (f?854+07H)
	ADD  	A,R7
	MOV  	DPL,A
	CLR  	A
	ADDC 	A,#HIGH (f?854+07H)
	MOV  	DPH,A
	MOVX 	A,@DPTR
	CJNE 	A,#041H,?C0040
	MOV  	A,#LOW (f?854+08H)
	ADD  	A,R7
	MOV  	DPL,A
	CLR  	A
	ADDC 	A,#HIGH (f?854+08H)
	MOV  	DPH,A
	MOVX 	A,@DPTR
	XRL  	A,#056H
	JZ   	?C0039
?C0040:
;         return 0; // .wav   
			; SOURCE LINE # 273
	MOV  	R7,#00H
	RET  	
;     }
			; SOURCE LINE # 274
?C0039:
;     for (i = 0; f.fname[i] != '\0'; i++)
			; SOURCE LINE # 275
;---- Variable 'i?855' assigned to Register 'R6' ----
	CLR  	A
	MOV  	R6,A
?C0041:
	MOV  	A,#LOW (f?854+016H)
	ADD  	A,R6
	MOV  	DPL,A
	CLR  	A
	ADDC 	A,#HIGH (f?854+016H)
	MOV  	DPH,A
	MOVX 	A,@DPTR
	MOV  	R7,A
	JZ   	?C0042
;         if (__is_ascii(f.fname[i]) == 0)
			; SOURCE LINE # 276
	LCALL	___is_ascii
	MOV  	A,R7
	JNZ  	?C0043
;             return 0; // 
			; SOURCE LINE # 277
	MOV  	R7,A
	RET  	
?C0043:
	INC  	R6
	SJMP 	?C0041
?C0042:
;     return 1;
			; SOURCE LINE # 278
	MOV  	R7,#01H
; }
			; SOURCE LINE # 279
?C0038:
	RET  	
; END OF checkfile

; 
; /// @brief 1:\music\filename
; /// @param uint8_t *filename
; void generatepath(uint8_t *filename)

	RSEG  ?PR?_generatepath?MAIN
_generatepath:
	USING	0
			; SOURCE LINE # 283
	MOV  	DPTR,#filename?957
	LCALL	L?0232
; {
			; SOURCE LINE # 284
;     uint16_t i;
;     for (i = 0; i < 300; i++)
			; SOURCE LINE # 286
;---- Variable 'i?958' assigned to Register 'R6/R7' ----
?C0045:
;         path[i] = 0;
			; SOURCE LINE # 287
	MOV  	R6,#02H
	MOV  	R7,#02CH
	MOV  	DPTR,#path
	CLR  	A
?C0188:
	MOVX 	@DPTR,A
	INC  	DPTR
	DJNZ 	R7,?C0188
	DJNZ 	R6,?C0188
?C0046:
;     path[0] = '1';
			; SOURCE LINE # 288
	MOV  	DPTR,#path
	MOV  	A,#031H
	MOVX 	@DPTR,A
;     path[1] = ':';
			; SOURCE LINE # 289
	INC  	DPTR
	MOV  	A,#03AH
	MOVX 	@DPTR,A
;     path[2] = '\\';
			; SOURCE LINE # 290
	INC  	DPTR
	MOV  	A,#05CH
	MOVX 	@DPTR,A
;     path[3] = 'm';
			; SOURCE LINE # 291
	INC  	DPTR
	MOV  	A,#06DH
	MOVX 	@DPTR,A
;     path[4] = 'u';
			; SOURCE LINE # 292
	INC  	DPTR
	MOV  	A,#075H
	MOVX 	@DPTR,A
;     path[5] = 's';
			; SOURCE LINE # 293
	INC  	DPTR
	MOV  	A,#073H
	MOVX 	@DPTR,A
;     path[6] = 'i';
			; SOURCE LINE # 294
	INC  	DPTR
	MOV  	A,#069H
	MOVX 	@DPTR,A
;     path[7] = 'c';
			; SOURCE LINE # 295
	INC  	DPTR
	MOV  	A,#063H
	MOVX 	@DPTR,A
;     path[8] = '\\';
			; SOURCE LINE # 296
	INC  	DPTR
	MOV  	A,#05CH
	MOVX 	@DPTR,A
;     for (i = 0; filename[i] != '\0'; i++)
			; SOURCE LINE # 297
	CLR  	A
	MOV  	R6,A
	MOV  	R7,A
?C0048:
	MOV  	DPTR,#filename?957
	LCALL	L?0217
	MOV  	DPL,R7
	MOV  	DPH,R6
	LCALL	?C?CLDOPTR
	MOV  	R5,A
	JZ   	?C0051
;     {
			; SOURCE LINE # 298
;         path[i + 9] = filename[i];
			; SOURCE LINE # 299
	MOV  	A,#LOW (path+09H)
	ADD  	A,R7
	MOV  	DPL,A
	MOV  	A,#HIGH (path+09H)
	ADDC 	A,R6
	MOV  	DPH,A
	MOV  	A,R5
	MOVX 	@DPTR,A
;     }
			; SOURCE LINE # 300
	INC  	R7
	CJNE 	R7,#00H,?C0189
	INC  	R6
?C0189:
	SJMP 	?C0048
; }
			; SOURCE LINE # 301
?C0051:
	RET  	
; END OF _generatepath

; /// @brief 
; /// @param uint8_t dat
; /// @param uint8_t lenth
; /// @param uint8_t op
; /// @return op0/1,
; uint32_t MakeBytes(uint8_t dat[], uint8_t lenth, uint8_t op)

	RSEG  ?PR?_MakeBytes?MAIN
_MakeBytes:
	USING	0
			; SOURCE LINE # 307
	MOV  	DPTR,#dat?1059
	LCALL	L?0232
	INC  	DPTR
	MOV  	A,R5
	MOVX 	@DPTR,A
; {
			; SOURCE LINE # 308
;     uint32_t res = 0;
			; SOURCE LINE # 309
	MOV  	DPTR,#res?1062
	LCALL	?C?LSTKXDATA
	DB   	00H
	DB   	00H
	DB   	00H
	DB   	00H
;     if (op == 1)
			; SOURCE LINE # 310
	MOV  	DPTR,#op?1061
	MOVX 	A,@DPTR
	XRL  	A,#01H
	JZ   	$ + 5H
	LJMP 	?C0052
;     { // Small Endian
			; SOURCE LINE # 311
;         if (lenth >= 1)
			; SOURCE LINE # 312
	LCALL	L?0274
	JC   	?C0053
;             res |= ((uint32_t)(dat[0]));
			; SOURCE LINE # 313
	LCALL	L?0210
	MOV  	R3,A
	PUSH 	AR1
	PUSH 	AR2
	PUSH 	AR3
	LCALL	L?0215
	LCALL	?C?CLDPTR
	MOV  	R7,A
	POP  	AR3
	POP  	AR2
	POP  	AR1
	MOV  	A,R3
	ORL  	A,R7
	MOV  	R7,A
	MOV  	A,R2
	MOV  	R6,A
	MOV  	A,R1
	MOV  	R5,A
	MOV  	A,R0
	LCALL	L?0226
?C0053:
;         if (lenth >= 2)
			; SOURCE LINE # 314
	LCALL	L?0275
	JC   	?C0054
;             res |= ((uint32_t)(dat[1])) << 8;
			; SOURCE LINE # 315
	LCALL	L?0210
	MOV  	R3,A
	PUSH 	AR0
	PUSH 	AR1
	PUSH 	AR2
	PUSH 	AR3
	LCALL	L?0215
	MOV  	DPTR,#01H
	LCALL	L?0237
	POP  	AR3
	POP  	AR2
	POP  	AR1
	POP  	AR0
	LCALL	L?0224
?C0054:
;         if (lenth >= 3)
			; SOURCE LINE # 316
	LCALL	L?0276
	JC   	?C0055
;             res |= ((uint32_t)(dat[2])) << 16;
			; SOURCE LINE # 317
	LCALL	L?0211
	MOV  	R3,A
	PUSH 	AR0
	PUSH 	AR1
	PUSH 	AR2
	PUSH 	AR3
	LCALL	L?0216
	MOV  	DPTR,#02H
	LCALL	?C?CLDOPTR
	MOV  	R0,#010H
	LCALL	L?0238
	POP  	AR3
	POP  	AR2
	POP  	AR1
	POP  	AR0
	LCALL	L?0224
?C0055:
;         if (lenth >= 4)
			; SOURCE LINE # 318
	LCALL	L?0262
	JNC  	$ + 5H
	LJMP 	?C0057
;             res |= ((uint32_t)(dat[3])) << 24;
			; SOURCE LINE # 319
	LCALL	L?0211
	MOV  	R3,A
	PUSH 	AR0
	PUSH 	AR1
	PUSH 	AR2
	PUSH 	AR3
	LCALL	L?0216
	MOV  	DPTR,#03H
	LCALL	?C?CLDOPTR
;     }
			; SOURCE LINE # 320
	LJMP 	?C0201
?C0052:
;     else
;     { // Big Endian
			; SOURCE LINE # 322
;         if (lenth >= 1)
			; SOURCE LINE # 323
	LCALL	L?0274
	JC   	?C0058
;             res |= ((uint32_t)(dat[3]));
			; SOURCE LINE # 324
	LCALL	L?0211
	MOV  	R3,A
	PUSH 	AR0
	PUSH 	AR1
	PUSH 	AR2
	PUSH 	AR3
	LCALL	L?0216
	MOV  	DPTR,#03H
	LCALL	?C?CLDOPTR
	MOV  	R7,A
	POP  	AR3
	POP  	AR2
	POP  	AR1
	POP  	AR0
	MOV  	A,R3
	ORL  	A,R7
	MOV  	R7,A
	MOV  	A,R2
	MOV  	R6,A
	MOV  	A,R1
	MOV  	R5,A
	MOV  	A,R0
	LCALL	L?0226
?C0058:
;         if (lenth >= 2)
			; SOURCE LINE # 325
	LCALL	L?0275
	JC   	?C0059
;             res |= ((uint32_t)(dat[2])) << 8;
			; SOURCE LINE # 326
	LCALL	L?0211
	MOV  	R3,A
	PUSH 	AR0
	PUSH 	AR1
	PUSH 	AR2
	PUSH 	AR3
	LCALL	L?0216
	MOV  	DPTR,#02H
	LCALL	L?0237
	POP  	AR3
	POP  	AR2
	POP  	AR1
	POP  	AR0
	LCALL	L?0225
?C0059:
;         if (lenth >= 3)
			; SOURCE LINE # 327
	LCALL	L?0276
	JC   	?C0060
;             res |= ((uint32_t)(dat[1])) << 16;
			; SOURCE LINE # 328
	LCALL	L?0211
	MOV  	R3,A
	PUSH 	AR0
	PUSH 	AR1
	PUSH 	AR2
	PUSH 	AR3
	LCALL	L?0216
	MOV  	DPTR,#01H
	LCALL	?C?CLDOPTR
	MOV  	R7,A
	CLR  	A
	MOV  	R4,A
	MOV  	R5,A
	MOV  	R6,A
	MOV  	R0,#010H
	LCALL	?C?LSHL
	POP  	AR3
	POP  	AR2
	POP  	AR1
	POP  	AR0
	LCALL	L?0225
?C0060:
;         if (lenth >= 4)
			; SOURCE LINE # 329
	LCALL	L?0262
	JC   	?C0057
;             res |= ((uint32_t)(dat[0])) << 24;
			; SOURCE LINE # 330
	LCALL	L?0211
	MOV  	R3,A
	PUSH 	AR0
	PUSH 	AR1
	PUSH 	AR2
	PUSH 	AR3
	LCALL	L?0216
	LCALL	?C?CLDPTR
?C0201:
	MOV  	R7,A
	CLR  	A
	MOV  	R4,A
	MOV  	R5,A
	MOV  	R6,A
	MOV  	R0,#018H
	LCALL	?C?LSHL
	POP  	AR3
	POP  	AR2
	POP  	AR1
	POP  	AR0
	LCALL	L?0225
;     }
			; SOURCE LINE # 331
?C0057:
;     return res;
			; SOURCE LINE # 332
	MOV  	DPTR,#res?1062
	LCALL	L?0220
	MOV  	R7,A
; }
			; SOURCE LINE # 333
	RET  	
; END OF _MakeBytes

; 
; /// @brief 
; /// @param uint8_t *path
; /// @return 
; uint8_t Get_Filenum(uint8_t *path)

	RSEG  ?PR?_Get_Filenum?MAIN
_Get_Filenum:
	USING	0
			; SOURCE LINE # 338
	MOV  	DPTR,#path?1163
	LCALL	L?0232
; {
			; SOURCE LINE # 339
;     DIR __dir;
;     FILINFO __fno;
;     uint8_t file_cnt = 0;
			; SOURCE LINE # 342
	CLR  	A
	MOV  	DPTR,#file_cnt?1166
	MOVX 	@DPTR,A
;     res = f_opendir(&__dir, path);
			; SOURCE LINE # 343
	MOV  	DPTR,#path?1163
	LCALL	L?0213
	MOV  	DPTR,#?_f_opendir?BYTE+03H
	XCH  	A,R1
	LCALL	L?0233
	MOV  	R3,#01H
	MOV  	R2,#HIGH (__dir?1164)
	MOV  	R1,#LOW (__dir?1164)
	LCALL	_f_opendir
	MOV  	DPTR,#res
	MOV  	A,R7
	MOVX 	@DPTR,A
?C0063:
;     while (1)
			; SOURCE LINE # 344
;     {
			; SOURCE LINE # 345
;         res = f_readdir(&__dir, &__fno); // 
			; SOURCE LINE # 346
	MOV  	DPTR,#?_f_readdir?BYTE+03H
	MOV  	A,#01H
	MOVX 	@DPTR,A
	INC  	DPTR
	MOV  	A,#HIGH (__fno?1165)
	MOVX 	@DPTR,A
	INC  	DPTR
	MOV  	A,#LOW (__fno?1165)
	MOVX 	@DPTR,A
	MOV  	R3,#01H
	MOV  	R2,#HIGH (__dir?1164)
	MOV  	R1,#LOW (__dir?1164)
	LCALL	_f_readdir
	MOV  	DPTR,#res
	MOV  	A,R7
	MOVX 	@DPTR,A
;         if (res != FR_OK || __fno.fname[0] == 0)
			; SOURCE LINE # 347
	JNZ  	?C0064
	MOV  	DPTR,#__fno?1165+016H
	MOVX 	A,@DPTR
	MOV  	R7,A
	LCALL	L?0246
	JZ   	?C0064
;             break;
			; SOURCE LINE # 348
;         if (__fno.fname[0] == '.')
			; SOURCE LINE # 349
	MOV  	A,R7
	XRL  	A,#02EH
	JZ   	?C0063
;             continue; // 
			; SOURCE LINE # 350
;         // 
;         if (__fno.fattrib & AM_DIR)
			; SOURCE LINE # 352
	MOV  	DPTR,#__fno?1165+08H
	MOVX 	A,@DPTR
	JB   	ACC.4,?C0063
;         {
			; SOURCE LINE # 353
;             // ???
;             // OLED_Printf(0, cnt1*2, 16, "%s", fno.fname);
;             // cnt1++;
;             // index++;
;         }
			; SOURCE LINE # 358
;         else
;         {
			; SOURCE LINE # 360
;             // ?
;             // OLED_Printf(0, cnt2*2, 16, "%s", fno.fname);
;             // Graphic_Printf(0,index*8,1,"%s",fno.fname);
;             // if(fno.)
; 
;             if (checkfile(__fno))
			; SOURCE LINE # 366
	MOV  	R2,#HIGH (__fno?1165)
	MOV  	R1,#LOW (__fno?1165)
	LCALL	L?0259
	LCALL	checkfile
	MOV  	A,R7
	JZ   	?C0063
;                 file_cnt++;
			; SOURCE LINE # 367
	MOV  	DPTR,#file_cnt?1166
	MOVX 	A,@DPTR
	INC  	A
	MOVX 	@DPTR,A
;         }
			; SOURCE LINE # 368
;     }
			; SOURCE LINE # 369
	SJMP 	?C0063
?C0064:
;     return file_cnt;
			; SOURCE LINE # 370
	MOV  	DPTR,#file_cnt?1166
	MOVX 	A,@DPTR
	MOV  	R7,A
; }
			; SOURCE LINE # 371
	RET  	
; END OF _Get_Filenum

; 
; /// @brief n
; /// @param uint8_t *path ??
; /// @param uint8_t n n
; /// @param uint8_t *filename 
; /// @param uint8_t *altname 
; /// @return void
; 
; void Get_Nth(uint8_t *path, uint8_t n, uint8_t *filename, uint8_t *altname)

	RSEG  ?PR?_Get_Nth?MAIN
_Get_Nth:
	USING	0
			; SOURCE LINE # 380
	MOV  	DPTR,#path?1267
	LCALL	L?0232
	INC  	DPTR
	MOV  	A,R5
	MOVX 	@DPTR,A
; {
			; SOURCE LINE # 381
;     uint16_t i = 0;
			; SOURCE LINE # 382
	LCALL	L?0247
;     DIR __dir;
;     FILINFO __fno;
;     uint8_t file_index = 0;
			; SOURCE LINE # 385
	MOV  	DPTR,#file_index?1274
	MOVX 	@DPTR,A
;     for (i = 0; i < FF_MAX_LFN; i++)
			; SOURCE LINE # 386
	LCALL	L?0249
?C0072:
	LCALL	L?0250
	CLR  	C
	SUBB 	A,#0FFH
	MOV  	A,R6
	SUBB 	A,#00H
	JNC  	?C0073
;         __fno.fname[i] = 0;
			; SOURCE LINE # 387
	LCALL	L?0282
	CLR  	A
	MOVX 	@DPTR,A
	LCALL	L?0244
	JNZ  	?C0072
	LCALL	L?0270
?C0190:
	SJMP 	?C0072
?C0073:
;     for (i = 0; i < FF_SFN_BUF; i++)
			; SOURCE LINE # 388
	LCALL	L?0247
?C0075:
	LCALL	L?0250
	CLR  	C
	SUBB 	A,#0CH
	MOV  	A,R6
	SUBB 	A,#00H
	JNC  	?C0076
;         __fno.altname[i] = 0;
			; SOURCE LINE # 389
	LCALL	L?0283
	CLR  	A
	MOVX 	@DPTR,A
	LCALL	L?0244
	JNZ  	?C0075
	LCALL	L?0270
?C0191:
	SJMP 	?C0075
?C0076:
;     res = f_opendir(&__dir, path);
			; SOURCE LINE # 390
	MOV  	DPTR,#path?1267
	LCALL	L?0213
	MOV  	DPTR,#?_f_opendir?BYTE+03H
	XCH  	A,R1
	LCALL	L?0233
	MOV  	R3,#01H
	MOV  	R2,#HIGH (__dir?1272)
	MOV  	R1,#LOW (__dir?1272)
	LCALL	_f_opendir
	MOV  	DPTR,#res
	MOV  	A,R7
	MOVX 	@DPTR,A
?C0078:
;     while (1)
			; SOURCE LINE # 391
;     {
			; SOURCE LINE # 392
;         res = f_readdir(&__dir, &__fno); // ?
			; SOURCE LINE # 393
	MOV  	DPTR,#?_f_readdir?BYTE+03H
	MOV  	A,#01H
	MOVX 	@DPTR,A
	INC  	DPTR
	MOV  	A,#HIGH (__fno?1273)
	MOVX 	@DPTR,A
	INC  	DPTR
	MOV  	A,#LOW (__fno?1273)
	MOVX 	@DPTR,A
	MOV  	R3,#01H
	MOV  	R2,#HIGH (__dir?1272)
	MOV  	R1,#LOW (__dir?1272)
	LCALL	_f_readdir
	MOV  	DPTR,#res
	MOV  	A,R7
	MOVX 	@DPTR,A
;         if (res != FR_OK || __fno.fname[0] == 0)
			; SOURCE LINE # 394
	JZ   	$ + 5H
	LJMP 	?C0079
	MOV  	DPTR,#__fno?1273+016H
	MOVX 	A,@DPTR
	MOV  	R7,A
	LCALL	L?0246
	JZ   	?C0079
;             break;
			; SOURCE LINE # 395
;         if (__fno.fname[0] == '.')
			; SOURCE LINE # 396
	MOV  	A,R7
	XRL  	A,#02EH
	JZ   	?C0078
;             continue; // ??
			; SOURCE LINE # 397
;         // ???
;         if (__fno.fattrib & AM_DIR)
			; SOURCE LINE # 399
	MOV  	DPTR,#__fno?1273+08H
	MOVX 	A,@DPTR
	JB   	ACC.4,?C0078
;         {
			; SOURCE LINE # 400
;             // ???
;             // OLED_Printf(0, cnt1*2, 16, "%s", fno.fname);
;             // cnt1++;
;             // index++;
;         }
			; SOURCE LINE # 405
;         else
;         {
			; SOURCE LINE # 407
;             // ?
;             // OLED_Printf(0, cnt2*2, 16, "%s", fno.fname);
;             // Graphic_Printf(0,index*8,1,"%s",fno.fname);
;             // if(fno.)
;             if (checkfile(__fno))
			; SOURCE LINE # 412
	MOV  	R2,#HIGH (__fno?1273)
	MOV  	R1,#LOW (__fno?1273)
	LCALL	L?0259
	LCALL	checkfile
	MOV  	A,R7
	JZ   	?C0085
;                 file_index++;
			; SOURCE LINE # 413
	MOV  	DPTR,#file_index?1274
	MOVX 	A,@DPTR
	INC  	A
	MOVX 	@DPTR,A
?C0085:
;             if (file_index == n)
			; SOURCE LINE # 414
	MOV  	DPTR,#n?1268
	MOVX 	A,@DPTR
	MOV  	R7,A
	MOV  	DPTR,#file_index?1274
	MOVX 	A,@DPTR
	CJNE 	A,AR7,?C0078
;             {
			; SOURCE LINE # 415
;                 for (i = 0; __fno.fname[i] != 0; i++)
			; SOURCE LINE # 416
	LCALL	L?0248
?C0087:
	LCALL	L?0251
	ADD  	A,#LOW (__fno?1273+016H)
	MOV  	DPL,A
	MOV  	A,#HIGH (__fno?1273+016H)
	LCALL	L?0245
	JZ   	?C0088
;                 {
			; SOURCE LINE # 417
;                     filename[i] = __fno.fname[i];
			; SOURCE LINE # 418
	LCALL	L?0282
	MOVX 	A,@DPTR
	MOV  	R5,A
	MOV  	DPTR,#filename?1269
	LCALL	L?0217
;                 }
			; SOURCE LINE # 419
	LCALL	L?0243
	JNZ  	?C0087
	LCALL	L?0271
?C0192:
	SJMP 	?C0087
?C0088:
;                 for (i = 0; __fno.altname[i] != 0; i++)
			; SOURCE LINE # 420
	LCALL	L?0248
?C0090:
	LCALL	L?0251
	ADD  	A,#LOW (__fno?1273+09H)
	MOV  	DPL,A
	MOV  	A,#HIGH (__fno?1273+09H)
	LCALL	L?0245
	JZ   	?C0202
;                 {
			; SOURCE LINE # 421
;                     altname[i] = __fno.altname[i];
			; SOURCE LINE # 422
	LCALL	L?0283
	MOVX 	A,@DPTR
	MOV  	R5,A
	MOV  	DPTR,#altname?1270
	LCALL	L?0217
;                 }
			; SOURCE LINE # 423
	LCALL	L?0243
	JNZ  	?C0090
	LCALL	L?0271
?C0193:
	SJMP 	?C0090
;                 f_closedir(&dir);
;                 return;
;             }
			; SOURCE LINE # 426
;         }
			; SOURCE LINE # 427
;     }
			; SOURCE LINE # 428
?C0079:
;     filename = NULL;
			; SOURCE LINE # 429
	MOV  	DPTR,#filename?1269
	CLR  	A
	MOVX 	@DPTR,A
	INC  	DPTR
	MOVX 	@DPTR,A
	INC  	DPTR
	MOVX 	@DPTR,A
;     f_closedir(&dir);
			; SOURCE LINE # 430
?C0202:
	MOV  	R3,#01H
	MOV  	R2,#HIGH (dir)
	MOV  	R1,#LOW (dir)
	LCALL	_f_closedir
;     return;
; }
			; SOURCE LINE # 432
?C0093:
	RET  	
; END OF _Get_Nth

; 
; uint16_t pos = 0;
; 
; unsigned char code Icons[3][32] = {
;     {// ??
;      /*--  C:\Users\nichengyan\Desktop\205.bmp  --*/
;      /*--  x=16x16  --*/
;      0x7F, 0x7F, 0x1F, 0x07, 0x07, 0x43, 0x63, 0xE1, 0xE1, 0x7F, 0x3F, 0x1F, 0x0F, 0x0F, 0x1F, 0x3F,
;      0xFE, 0xF8, 0xF0, 0xF0, 0xF8, 0xFC, 0xFE, 0xFF, 0x87, 0xC7, 0xC2, 0xC0, 0xE0, 0xF0, 0xFE, 0xFE},
; 
;     {// ??
;      /*--  C:\Users\nichengyan\Desktop\270.bmp  --*/
;      /*--  x=16x16  --*/
;      0xE1, 0xE1, 0xE1, 0xE1, 0x61, 0xE1, 0xE1, 0xE1, 0xE1, 0xE1, 0xE1, 0x80, 0xC0, 0xC0, 0xE1, 0xF3,
;      0xF3, 0xE1, 0xC0, 0xC0, 0x80, 0xE1, 0xE1, 0xE1, 0xE1, 0xE1, 0xE1, 0xE1, 0xE1, 0xE1, 0xE1, 0xE1
; 
;     },
;     {// ??
;      /*--  C:\Users\nichengyan\Desktop\242.bmp  --*/
;      /*--  x=16x16  --*/
;      0xE1, 0xE1, 0xE1, 0x83, 0x87, 0x0F, 0x1F, 0x0F, 0x07, 0x83, 0xC1, 0x80, 0xC0, 0xC0, 0xE1, 0xF3,
;      0x87, 0x87, 0x87, 0xC1, 0xE0, 0xF0, 0xF8, 0xF8, 0xF0, 0xC1, 0xC3, 0x05, 0x03, 0x03, 0x87, 0xCF}};
; unsigned char code Str[][5] = {
;     "Once",
;     "Sequ",
;     "Rand"};
; void main()

	RSEG  ?PR?main?MAIN
main:
	USING	0
			; SOURCE LINE # 459
; {
			; SOURCE LINE # 460
; 
;     Sys_Init();
			; SOURCE LINE # 462
	LCALL	Sys_Init
;     Delay1000ms();
			; SOURCE LINE # 463
	LCALL	Delay1000ms
;     res = f_mount(&SD_FS, "1:", 1);
			; SOURCE LINE # 464
	MOV  	DPTR,#?_f_mount?BYTE+03H
	MOV  	A,#0FFH
	MOVX 	@DPTR,A
	INC  	DPTR
	MOV  	A,#HIGH (?SC_0)
	MOVX 	@DPTR,A
	MOV  	A,#LOW (?SC_0)
	LCALL	L?0236
	MOV  	R3,A
	MOV  	R2,#HIGH (SD_FS)
	MOV  	R1,#LOW (SD_FS)
	LCALL	_f_mount
	MOV  	DPTR,#res
	MOV  	A,R7
	MOVX 	@DPTR,A
;     if (res != FR_OK)
			; SOURCE LINE # 465
	JZ   	?main?Menu
;     {
			; SOURCE LINE # 466
;         // OLED_ShowString(0,0,(uint8_t*)"Disk Error!",16);
;         OLED_Printf(0, 0, 16, "Disk Error %bd", res);
			; SOURCE LINE # 468
	LCALL	L?0277
	MOV  	A,#HIGH (?SC_3)
	MOVX 	@DPTR,A
	INC  	DPTR
	MOV  	A,#LOW (?SC_3)
	MOVX 	@DPTR,A
	MOV  	DPTR,#res
	LCALL	L?0242
?C0095:
;         while (1)
			; SOURCE LINE # 469
	SJMP 	?C0095
;             ;
;     }
			; SOURCE LINE # 471
; Menu:
			; SOURCE LINE # 472
?main?Menu:
;     File_Num = Get_Filenum("1:\\music");
			; SOURCE LINE # 473
	MOV  	R3,#0FFH
	MOV  	R2,#HIGH (?SC_18)
	MOV  	R1,#LOW (?SC_18)
	LCALL	_Get_Filenum
	MOV  	DPTR,#File_Num
	MOV  	A,R7
	MOVX 	@DPTR,A
;     //__memset(Name,255,0);
;     // Get_Nth("1:\\music",2,Name);
; 
;     Graphic_SetFont(1);
			; SOURCE LINE # 477
	MOV  	R7,#01H
	LCALL	_Graphic_SetFont
?C0098:
;     while (1)
			; SOURCE LINE # 478
;     {
			; SOURCE LINE # 479
;         Graphic_ClearBufferBit(0);
			; SOURCE LINE # 480
	CLR  	A
	MOV  	R7,A
	LCALL	_Graphic_ClearBufferBit
;         /*
;         if(k1 > 7){
;             k1 = 7;
;         }
;         for(i = 0; i < 7; i++){
;             __memset(wav_file[i].name,255,0);
;             wav_file[i].lenth = 0;
;             if(i+k < File_Num){
;                 Get_Nth("1:\\music",k + i,wav_file[i].name);
;             }
; 
;             Graphic_Printf(0,i*8,1,"%s",wav_file[i].name);
;         }
;         */
;         __memset(wav_file.name, 255, 0);
			; SOURCE LINE # 495
;         __memset(wav_file.altname, 14, 0);
			; SOURCE LINE # 496
;         wav_file.lenth = 0;
			; SOURCE LINE # 497
; 
;         Get_Nth("1:\\music", k, wav_file.name, wav_file.altname);
			; SOURCE LINE # 499
; 
;         wav_file.lenth = __strlen(wav_file.name);
			; SOURCE LINE # 501
	LCALL	L?0214
	LCALL	___strlen
	MOV  	DPTR,#wav_file+010EH
	MOV  	A,R7
	MOVX 	@DPTR,A
;         Graphic_Printf(0, 0, 0, "Wav To Play:");
			; SOURCE LINE # 502
	LCALL	L?0279
	MOV  	A,#HIGH (?SC_27)
	MOVX 	@DPTR,A
	INC  	DPTR
	MOV  	A,#LOW (?SC_27)
	MOVX 	@DPTR,A
	CLR  	A
	MOV  	R3,A
	MOV  	R5,A
	MOV  	R4,A
	MOV  	R7,A
	MOV  	R6,A
	LCALL	_Graphic_Printf
;         Graphic_Printf(0, 32, 0, "Play Mode:");
			; SOURCE LINE # 503
	LCALL	L?0279
	MOV  	A,#HIGH (?SC_40)
	MOVX 	@DPTR,A
	INC  	DPTR
	MOV  	A,#LOW (?SC_40)
	MOVX 	@DPTR,A
	CLR  	A
	MOV  	R3,A
	MOV  	R5,#020H
	MOV  	R4,A
	MOV  	R7,A
	MOV  	R6,A
	LCALL	_Graphic_Printf
;         if (wav_file.lenth <= 16)
			; SOURCE LINE # 504
	MOV  	DPTR,#wav_file+010EH
	MOVX 	A,@DPTR
	SETB 	C
	SUBB 	A,#010H
	MOV  	A,#080H
	SUBB 	A,#080H
	JNC  	?C0100
;         {
			; SOURCE LINE # 505
;             Graphic_Printf(0, 16, 1, "%s", wav_file.name);
			; SOURCE LINE # 506
	LCALL	L?0234
	LCALL	L?0264
	CLR  	A
	MOV  	R7,A
	MOV  	R6,A
	LCALL	_Graphic_Printf
;         }
			; SOURCE LINE # 507
	SJMP 	?C0101
?C0100:
;         else
;         {
			; SOURCE LINE # 509
;             Graphic_Printf(4 - pos, 16, 1, "%s", wav_file.name);
			; SOURCE LINE # 510
	MOV  	DPTR,#pos
	MOVX 	A,@DPTR
	MOV  	R6,A
	INC  	DPTR
	MOVX 	A,@DPTR
	MOV  	R7,A
	CLR  	C
	MOV  	A,#04H
	SUBB 	A,R7
	MOV  	R7,A
	CLR  	A
	SUBB 	A,R6
	MOV  	R6,A
	LCALL	L?0234
	LCALL	L?0264
	LCALL	_Graphic_Printf
;             pos++;
			; SOURCE LINE # 511
	MOV  	DPTR,#pos+01H
	MOVX 	A,@DPTR
	INC  	A
	MOVX 	@DPTR,A
	JNZ  	?C0194
	MOV  	DPTR,#pos
	MOVX 	A,@DPTR
	INC  	A
	MOVX 	@DPTR,A
?C0194:
;             if (pos > wav_file.lenth * 8 - 124)
			; SOURCE LINE # 512
	MOV  	DPTR,#wav_file+010EH
	MOVX 	A,@DPTR
	MOV  	B,#08H
	MUL  	AB
	ADD  	A,#084H
	MOV  	R7,A
	MOV  	A,B
	ADDC 	A,#0FFH
	MOV  	R6,A
	SETB 	C
	MOV  	DPTR,#pos+01H
	MOVX 	A,@DPTR
	SUBB 	A,R7
	MOV  	DPTR,#pos
	MOVX 	A,@DPTR
	SUBB 	A,R6
	JC   	?C0101
;                 pos = 0;
			; SOURCE LINE # 513
	CLR  	A
	MOVX 	@DPTR,A
	INC  	DPTR
	MOVX 	@DPTR,A
;         }
			; SOURCE LINE # 514
?C0101:
;         Graphic_Printf(24, 48, 1, "%s", Str[Play_Mode]);
			; SOURCE LINE # 515
	MOV  	DPTR,#Play_Mode
	MOVX 	A,@DPTR
	MOV  	B,#05H
	MUL  	AB
	ADD  	A,#LOW (Str)
	MOV  	R1,A
	MOV  	A,#HIGH (Str)
	ADDC 	A,B
	MOV  	R2,A
	MOV  	DPTR,#?_Graphic_Printf?BYTE+08H
	MOV  	A,#0FFH
	LCALL	L?0233
	LCALL	L?0280
	MOV  	A,#HIGH (?SC_51)
	MOVX 	@DPTR,A
	INC  	DPTR
	MOV  	A,#LOW (?SC_51)
	MOVX 	@DPTR,A
	MOV  	R3,#01H
	MOV  	R5,#030H
	MOV  	R4,#00H
	MOV  	R7,#018H
	MOV  	R6,#00H
	LCALL	_Graphic_Printf
;         Graphic_DrawBmp(64, 48, 16, 16, Icons[Play_Mode]);
			; SOURCE LINE # 516
	MOV  	DPTR,#Play_Mode
	MOVX 	A,@DPTR
	MOV  	B,#020H
	MUL  	AB
	ADD  	A,#LOW (Icons)
	MOV  	R1,A
	MOV  	A,#HIGH (Icons)
	ADDC 	A,B
	MOV  	R2,A
	MOV  	DPTR,#?_Graphic_DrawBmp?BYTE+04H
	MOV  	A,#0FFH
	LCALL	L?0233
	MOV  	DPTR,#?_Graphic_DrawBmp?BYTE+03H
	MOV  	A,#010H
	MOVX 	@DPTR,A
	MOV  	R3,A
	MOV  	R5,#030H
	MOV  	R7,#040H
	LCALL	_Graphic_DrawBmp
;         Graphic_Flush();
			; SOURCE LINE # 517
	LCALL	Graphic_Flush
;         Keyright = Key_Scan() & 0x00ff;
			; SOURCE LINE # 518
	LCALL	Key_Scan
	MOV  	A,R7
	MOV  	DPTR,#Keyright
	MOVX 	@DPTR,A
;         if (Keyright == KEY_DOWN)
			; SOURCE LINE # 519
	MOV  	R6,#00H
	XRL  	A,#049H
	JNZ  	?C0103
;         {
			; SOURCE LINE # 520
;             if (k == File_Num)
			; SOURCE LINE # 521
	MOV  	DPTR,#File_Num
	MOVX 	A,@DPTR
	MOV  	R5,A
	MOV  	DPTR,#k
	MOVX 	A,@DPTR
	CJNE 	A,AR5,?C0104
;                 k = 1;
			; SOURCE LINE # 522
	MOV  	A,#01H
	MOVX 	@DPTR,A
	SJMP 	?C0103
?C0104:
;             else
;                 k++;
			; SOURCE LINE # 524
	MOV  	DPTR,#k
	MOVX 	A,@DPTR
	INC  	A
	MOVX 	@DPTR,A
;         }
			; SOURCE LINE # 525
?C0103:
;         if (Keyright == KEY_UP)
			; SOURCE LINE # 526
	MOV  	A,R7
	XRL  	A,#044H
	ORL  	A,R6
	JNZ  	?C0106
;         {
			; SOURCE LINE # 527
;             if (k == 1)
			; SOURCE LINE # 528
	MOV  	DPTR,#k
	MOVX 	A,@DPTR
	XRL  	A,#01H
	JNZ  	?C0107
;                 k = File_Num;
			; SOURCE LINE # 529
	MOV  	DPTR,#File_Num
	MOVX 	A,@DPTR
	MOV  	DPTR,#k
	MOVX 	@DPTR,A
	SJMP 	?C0106
?C0107:
;             else
;                 k--;
			; SOURCE LINE # 531
	MOV  	DPTR,#k
	MOVX 	A,@DPTR
	DEC  	A
	MOVX 	@DPTR,A
;         }
			; SOURCE LINE # 532
?C0106:
;         if (Keyright == KEY_RIGHT)
			; SOURCE LINE # 533
	MOV  	DPTR,#Keyright
	MOVX 	A,@DPTR
	MOV  	R7,A
	XRL  	A,#04AH
	JNZ  	?C0109
;         {
			; SOURCE LINE # 534
;             if (Play_Mode == 2)
			; SOURCE LINE # 535
	MOV  	DPTR,#Play_Mode
	MOVX 	A,@DPTR
	XRL  	A,#02H
	JNZ  	?C0110
;                 Play_Mode = 0;
			; SOURCE LINE # 536
	MOVX 	@DPTR,A
	SJMP 	?C0109
?C0110:
;             else
;                 Play_Mode++;
			; SOURCE LINE # 538
	MOV  	DPTR,#Play_Mode
	MOVX 	A,@DPTR
	INC  	A
	MOVX 	@DPTR,A
;         }
			; SOURCE LINE # 539
?C0109:
;         if (Keyright == KEY_LEFT)
			; SOURCE LINE # 540
	MOV  	R6,#00H
	MOV  	A,R7
	XRL  	A,#048H
	JNZ  	?C0112
;         {
			; SOURCE LINE # 541
;             if (Play_Mode == 0)
			; SOURCE LINE # 542
	MOV  	DPTR,#Play_Mode
	MOVX 	A,@DPTR
	JNZ  	?C0113
;                 Play_Mode = 2;
			; SOURCE LINE # 543
	MOV  	A,#02H
	MOVX 	@DPTR,A
	SJMP 	?C0112
?C0113:
;             else
;                 Play_Mode--;
			; SOURCE LINE # 545
	MOV  	DPTR,#Play_Mode
	MOVX 	A,@DPTR
	DEC  	A
	MOVX 	@DPTR,A
;         }
			; SOURCE LINE # 546
?C0112:
;         if (Keyright == KEY_EQUAL)
			; SOURCE LINE # 547
	MOV  	A,R7
	XRL  	A,#03DH
	ORL  	A,R6
	JZ   	$ + 5H
	LJMP 	?C0098
;             break;
			; SOURCE LINE # 548
;     }
			; SOURCE LINE # 549
; 
; Again:
			; SOURCE LINE # 551
?main?Again:
;     //
;     if (Play_Again_Manu)
			; SOURCE LINE # 553
	MOV  	DPTR,#Play_Again_Manu
	MOVX 	A,@DPTR
	JZ   	?C0117
;     {
			; SOURCE LINE # 554
;         Play_Again_Manu = 0;
			; SOURCE LINE # 555
	CLR  	A
	MOVX 	@DPTR,A
;         if (Next_Flg)
			; SOURCE LINE # 556
	MOV  	DPTR,#Next_Flg
	MOVX 	A,@DPTR
	JZ   	?C0118
;         {
			; SOURCE LINE # 557
;             Next_Flg = 0;
			; SOURCE LINE # 558
	CLR  	A
	MOVX 	@DPTR,A
;             if (k == File_Num)
			; SOURCE LINE # 559
	LCALL	L?0286
	CJNE 	A,AR7,?C0119
;                 k = 1;
			; SOURCE LINE # 560
	SJMP 	?C0204
?C0119:
;             else
;                 k++;
			; SOURCE LINE # 562
;         }
			; SOURCE LINE # 563
	SJMP 	?C0205
?C0118:
;         else if (Prev_Flg)
			; SOURCE LINE # 564
	MOV  	DPTR,#Prev_Flg
	MOVX 	A,@DPTR
	JZ   	?C0125
;         {
			; SOURCE LINE # 565
;             Prev_Flg = 0;
			; SOURCE LINE # 566
	CLR  	A
	MOVX 	@DPTR,A
;             if (k == 1)
			; SOURCE LINE # 567
	MOV  	DPTR,#k
	MOVX 	A,@DPTR
	XRL  	A,#01H
	JNZ  	?C0123
;                 k = File_Num;
			; SOURCE LINE # 568
	MOV  	DPTR,#File_Num
	MOVX 	A,@DPTR
	SJMP 	?C0206
?C0123:
;             else
;                 k--;
			; SOURCE LINE # 570
	MOV  	DPTR,#k
	MOVX 	A,@DPTR
	DEC  	A
	MOVX 	@DPTR,A
;         }
			; SOURCE LINE # 571
;     }
			; SOURCE LINE # 572
	SJMP 	?C0125
?C0117:
;     else if (Play_Again_Auto)
			; SOURCE LINE # 573
	MOV  	DPTR,#Play_Again_Auto
	MOVX 	A,@DPTR
	JZ   	?C0125
;     {
			; SOURCE LINE # 574
;         Play_Again_Auto = 0;
			; SOURCE LINE # 575
	CLR  	A
	MOVX 	@DPTR,A
;         if (Play_Mode == 0)
			; SOURCE LINE # 576
	MOV  	DPTR,#Play_Mode
	MOVX 	A,@DPTR
	MOV  	R7,A
	MOV  	R6,#00H
	JNZ  	?C0127
;         { // ??
			; SOURCE LINE # 577
;             k = k;
			; SOURCE LINE # 578
	MOV  	DPTR,#k
	MOVX 	A,@DPTR
	MOVX 	@DPTR,A
;         }
			; SOURCE LINE # 579
	SJMP 	?C0125
?C0127:
;         else if (Play_Mode == 1)
			; SOURCE LINE # 580
	MOV  	A,R7
	XRL  	A,#01H
	ORL  	A,R6
	JNZ  	?C0129
;         { // ??
			; SOURCE LINE # 581
;             if (k == File_Num)
			; SOURCE LINE # 582
	LCALL	L?0286
	CJNE 	A,AR7,?C0130
;                 k = 1;
			; SOURCE LINE # 583
?C0204:
	MOV  	A,#01H
	MOVX 	@DPTR,A
	SJMP 	?C0125
?C0130:
;             else
;                 k++;
			; SOURCE LINE # 585
?C0205:
	MOV  	DPTR,#k
	MOVX 	A,@DPTR
	INC  	A
	MOVX 	@DPTR,A
;         }
			; SOURCE LINE # 586
	SJMP 	?C0125
?C0129:
;         else if (Play_Mode == 2)
			; SOURCE LINE # 587
	MOV  	DPTR,#Play_Mode
	MOVX 	A,@DPTR
	XRL  	A,#02H
	JNZ  	?C0125
;         {
			; SOURCE LINE # 588
;             k = rand() % File_Num + 1;
			; SOURCE LINE # 589
	LCALL	rand
	MOV  	DPTR,#File_Num
	MOVX 	A,@DPTR
	MOV  	R5,A
	MOV  	R4,#00H
	LCALL	?C?SIDIV
	MOV  	A,R5
	INC  	A
?C0206:
	MOV  	DPTR,#k
	MOVX 	@DPTR,A
;         }
			; SOURCE LINE # 590
;     }
			; SOURCE LINE # 591
?C0125:
; 
;     __memset(wav_file.name, 255, 0);
			; SOURCE LINE # 593
;     __memset(wav_file.altname, 14, 0);
			; SOURCE LINE # 594
;     wav_file.lenth = 0;
			; SOURCE LINE # 595
;     Get_Nth("1:\\music", k, wav_file.name, wav_file.altname);
			; SOURCE LINE # 596
;     wav_file.lenth = __strlen(wav_file.name);
			; SOURCE LINE # 597
	LCALL	L?0214
	LCALL	___strlen
	MOV  	DPTR,#wav_file+010EH
	MOV  	A,R7
	MOVX 	@DPTR,A
;     generatepath(wav_file.name);
			; SOURCE LINE # 598
	MOV  	R3,#01H
	MOV  	R2,#HIGH (wav_file)
	MOV  	R1,#LOW (wav_file)
	LCALL	_generatepath
;     Graphic_SetFont(0);
			; SOURCE LINE # 599
	CLR  	A
	MOV  	R7,A
	LCALL	_Graphic_SetFont
; 
;     res1 = f_open(&testfile, path, FA_READ);
			; SOURCE LINE # 601
	MOV  	DPTR,#?_f_open?BYTE+03H
	MOV  	A,#01H
	MOVX 	@DPTR,A
	INC  	DPTR
	MOV  	A,#HIGH (path)
	MOVX 	@DPTR,A
	INC  	DPTR
	MOV  	A,#LOW (path)
	MOVX 	@DPTR,A
	INC  	DPTR
	MOV  	A,#01H
	MOVX 	@DPTR,A
	MOV  	R3,A
	MOV  	R2,#HIGH (testfile)
	MOV  	R1,#LOW (testfile)
	LCALL	_f_open
	MOV  	DPTR,#res1
	MOV  	A,R7
	MOVX 	@DPTR,A
; 
;     if (res1 != FR_OK)
			; SOURCE LINE # 603
	JZ   	?C0134
;     {
			; SOURCE LINE # 604
;         OLED_Printf(0, 0, 16, (uint8_t *)"File Error! %bd", res1);
			; SOURCE LINE # 605
	LCALL	L?0277
	MOV  	A,#HIGH (?SC_54)
	MOVX 	@DPTR,A
	INC  	DPTR
	MOV  	A,#LOW (?SC_54)
	MOVX 	@DPTR,A
	MOV  	DPTR,#res1
	LCALL	L?0242
?C0135:
;         while (1)
			; SOURCE LINE # 606
	SJMP 	?C0135
;             ;
;     }
			; SOURCE LINE # 608
?C0134:
;     f_read(&testfile, &Wave_FHD, sizeof(Wave_FHD), &rn);
			; SOURCE LINE # 609
	MOV  	DPTR,#?_f_read?BYTE+03H
	MOV  	A,#01H
	MOVX 	@DPTR,A
	INC  	DPTR
	MOV  	A,#HIGH (Wave_FHD)
	MOVX 	@DPTR,A
	INC  	DPTR
	MOV  	A,#LOW (Wave_FHD)
	MOVX 	@DPTR,A
	INC  	DPTR
	CLR  	A
	MOVX 	@DPTR,A
	INC  	DPTR
	MOV  	A,#02CH
	MOVX 	@DPTR,A
	INC  	DPTR
	MOV  	A,#01H
	MOVX 	@DPTR,A
	INC  	DPTR
	MOV  	A,#HIGH (rn)
	MOVX 	@DPTR,A
	INC  	DPTR
	MOV  	A,#LOW (rn)
	MOVX 	@DPTR,A
	LCALL	L?0266
	LCALL	_f_read
; 
;     File_Size = f_size(&testfile);
			; SOURCE LINE # 611
	MOV  	DPTR,#testfile+0BH
	LCALL	L?0220
	MOV  	R7,A
	MOV  	DPTR,#File_Size
	LCALL	?C?LSTXDATA
;     OLED_Clear();
			; SOURCE LINE # 612
	LCALL	OLED_Clear
;     JmpLenth = 2 * ((File_Size - sizeof(Wave_FHD)) / 200); // 
			; SOURCE LINE # 613
	LCALL	L?0218
	LCALL	L?0239
	CLR  	A
	MOV  	R3,#0C8H
	MOV  	R2,A
	MOV  	R1,A
	MOV  	R0,A
	LCALL	?C?ULDIV
	CLR  	A
	MOV  	R3,#02H
	MOV  	R2,A
	MOV  	R1,A
	MOV  	R0,A
	LCALL	?C?LMUL
	MOV  	DPTR,#JmpLenth
	LCALL	?C?LSTXDATA
; 
;     SampleRate = MakeBytes(Wave_FHD.SampleRate, 4, 1);
			; SOURCE LINE # 615
	MOV  	R2,#HIGH (Wave_FHD+018H)
	MOV  	R1,#LOW (Wave_FHD+018H)
	LCALL	L?0252
	MOV  	R5,#04H
	LCALL	_MakeBytes
	MOV  	DPTR,#SampleRate
	LCALL	?C?LSTXDATA
;     BytePerSample = MakeBytes(Wave_FHD.BitPerSample, 2, 1) / 8;
			; SOURCE LINE # 616
	MOV  	R2,#HIGH (Wave_FHD+022H)
	MOV  	R1,#LOW (Wave_FHD+022H)
	LCALL	L?0252
	MOV  	R5,#02H
	LCALL	_MakeBytes
	CLR  	A
	MOV  	R3,#08H
	MOV  	R2,A
	MOV  	R1,A
	MOV  	R0,A
	LCALL	?C?ULDIV
	MOV  	DPTR,#BytePerSample
	MOV  	A,R7
	MOVX 	@DPTR,A
;     ByteRate = MakeBytes(Wave_FHD.ByteRate, 4, 1);   // 
			; SOURCE LINE # 617
	MOV  	R3,#01H
	MOV  	R2,#HIGH (Wave_FHD+01CH)
	MOV  	R1,#LOW (Wave_FHD+01CH)
	LCALL	L?0253
	MOV  	R5,#04H
	LCALL	_MakeBytes
	MOV  	DPTR,#ByteRate
	LCALL	?C?LSTXDATA
;     Channel = MakeBytes(Wave_FHD.NumChannels, 2, 1); // 
			; SOURCE LINE # 618
	MOV  	R3,#01H
	MOV  	R2,#HIGH (Wave_FHD+016H)
	MOV  	R1,#LOW (Wave_FHD+016H)
	LCALL	L?0253
	MOV  	R5,#02H
	LCALL	_MakeBytes
	MOV  	DPTR,#Channel
	MOV  	A,R7
	MOVX 	@DPTR,A
;     RealData = Channel * BytePerSample;
			; SOURCE LINE # 619
	MOV  	DPTR,#BytePerSample
	MOVX 	A,@DPTR
	MOV  	R6,A
	MOV  	A,R7
	MOV  	B,R6
	MUL  	AB
	MOV  	DPTR,#RealData
	MOVX 	@DPTR,A
;     PlayTime = (File_Size - sizeof(Wave_FHD)) / ByteRate; // t=datasize/byterate
			; SOURCE LINE # 620
	LCALL	L?0218
	LCALL	L?0239
	MOV  	DPTR,#ByteRate
	LCALL	L?0212
	MOV  	R3,A
	LCALL	?C?ULDIV
	MOV  	DPTR,#PlayTime
	LCALL	?C?LSTXDATA
;     if (ByteRate > 44100 || Channel != 1)
			; SOURCE LINE # 621
	CLR  	A
	MOV  	R7,#044H
	MOV  	R6,#0ACH
	MOV  	R5,A
	MOV  	R4,A
	MOV  	DPTR,#ByteRate
	LCALL	L?0212
	MOV  	R3,A
	SETB 	C
	LCALL	?C?ULCMP
	JNC  	?C0138
	MOV  	DPTR,#Channel
	MOVX 	A,@DPTR
	XRL  	A,#01H
	JZ   	?C0137
?C0138:
;     {
			; SOURCE LINE # 622
;         OLED_Clear();
			; SOURCE LINE # 623
	LCALL	OLED_Clear
;         OLED_ShowString(0, 0, "Format Error!", 16);
			; SOURCE LINE # 624
	MOV  	R2,#HIGH (?SC_70)
	MOV  	R1,#LOW (?SC_70)
	LCALL	L?0254
	CLR  	A
	MOV  	R5,A
	MOV  	R7,A
	LCALL	_OLED_ShowString
;         OLED_ShowString(0, 2, "Can't be Played", 16);
			; SOURCE LINE # 625
	MOV  	R2,#HIGH (?SC_84)
	MOV  	R1,#LOW (?SC_84)
	LCALL	L?0254
	MOV  	R5,#02H
	CLR  	A
	MOV  	R7,A
	LCALL	_OLED_ShowString
;         goto Menu;
			; SOURCE LINE # 626
	LJMP 	?main?Menu
;     }
			; SOURCE LINE # 627
?C0137:
;     OLED_Printf(0, 0, 16, "%s", wav_file.altname);
			; SOURCE LINE # 628
	MOV  	DPTR,#?_OLED_Printf?BYTE+03H
	LCALL	L?0235
	INC  	DPTR
	MOV  	A,#HIGH (wav_file+0100H)
	MOVX 	@DPTR,A
	INC  	DPTR
	MOV  	A,#LOW (wav_file+0100H)
	MOVX 	@DPTR,A
	MOV  	R3,#010H
	CLR  	A
	MOV  	R5,A
	MOV  	R7,A
	LCALL	_OLED_Printf
;     EA = 1;
			; SOURCE LINE # 629
	SETB 	EA
;     Timer1_Config(MAIN_Fosc / SampleRate);
			; SOURCE LINE # 630
	MOV  	DPTR,#SampleRate
	LCALL	L?0212
	MOV  	R3,A
	MOV  	R7,#00H
	MOV  	R6,#05AH
	MOV  	R5,#062H
	MOV  	R4,#02H
	LCALL	?C?ULDIV
	LCALL	_Timer1_Config
;     PWM_Config();
			; SOURCE LINE # 631
	LCALL	PWM_Config
;     Audio = 1;
			; SOURCE LINE # 632
	SETB 	Audio
;     OLED_ShowNum(40, 6, Minute / 10, 1, 16);
			; SOURCE LINE # 633
;     OLED_ShowNum(48, 6, Minute % 10, 1, 16);
			; SOURCE LINE # 634
;     OLED_ShowChar(56, 6, ':', 16);
			; SOURCE LINE # 635
;     OLED_ShowNum(64, 6, Second / 10, 1, 16);
			; SOURCE LINE # 636
;     OLED_ShowNum(72, 6, Second % 10, 1, 16);
			; SOURCE LINE # 637
	LCALL	L?0208
	MOV  	R7,#048H
	LCALL	_OLED_ShowNum
;     f_rewind(&testfile);
			; SOURCE LINE # 638
	LCALL	L?0266
	MOV  	R7,#00H
	MOV  	R6,#00H
	MOV  	R5,#00H
	MOV  	R4,#00H
	LCALL	_f_lseek
?C0139:
; 
;     while (1)
			; SOURCE LINE # 640
;     {
			; SOURCE LINE # 641
;         if (!B_Play && bflg == 0)
			; SOURCE LINE # 642
	MOV  	DPTR,#B_Play
	MOVX 	A,@DPTR
	JNZ  	?C0141
	MOV  	DPTR,#bflg
	MOVX 	A,@DPTR
	JNZ  	?C0141
;         {
			; SOURCE LINE # 643
;             Cnt = 0;
			; SOURCE LINE # 644
;             B_Play = 1;
			; SOURCE LINE # 645
	LCALL	L?0272
	INC  	A
	MOVX 	@DPTR,A
;             bflg = 1;
			; SOURCE LINE # 646
	MOV  	DPTR,#bflg
	MOVX 	@DPTR,A
;             res1 = f_read(&testfile, MusicBuffer0, MusicBufferSize, &rn);
			; SOURCE LINE # 647
	MOV  	DPTR,#?_f_read?BYTE+03H
	MOVX 	@DPTR,A
	INC  	DPTR
	MOV  	A,#HIGH (MusicBuffer0)
	MOVX 	@DPTR,A
	MOV  	A,#LOW (MusicBuffer0)
	LCALL	L?0287
	MOV  	R3,#01H
	LCALL	L?0241
;         }
			; SOURCE LINE # 648
?C0141:
;         if (!B_Play && bflg == 1)
			; SOURCE LINE # 649
	MOV  	DPTR,#B_Play
	MOVX 	A,@DPTR
	JNZ  	?C0142
	MOV  	DPTR,#bflg
	MOVX 	A,@DPTR
	XRL  	A,#01H
	JNZ  	?C0142
;         {
			; SOURCE LINE # 650
;             Cnt = 0;
			; SOURCE LINE # 651
;             B_Play = 1;
			; SOURCE LINE # 652
	LCALL	L?0272
	INC  	A
	MOVX 	@DPTR,A
;             bflg = 0;
			; SOURCE LINE # 653
	CLR  	A
	MOV  	DPTR,#bflg
	MOVX 	@DPTR,A
;             res1 = f_read(&testfile, MusicBuffer1, MusicBufferSize, &rn);
			; SOURCE LINE # 654
	MOV  	R3,#01H
	MOV  	DPTR,#?_f_read?BYTE+03H
	INC  	A
	MOVX 	@DPTR,A
	INC  	DPTR
	MOV  	A,#HIGH (MusicBuffer1)
	MOVX 	@DPTR,A
	MOV  	A,#LOW (MusicBuffer1)
	LCALL	L?0287
	LCALL	L?0241
;         }
			; SOURCE LINE # 655
?C0142:
;         if (res1 != FR_OK || rn == 0)
			; SOURCE LINE # 656
	MOV  	DPTR,#res1
	MOVX 	A,@DPTR
	JZ   	$ + 5H
	LJMP 	?C0140
	MOV  	DPTR,#rn
	MOVX 	A,@DPTR
	JNZ  	?C0195
	INC  	DPTR
	MOVX 	A,@DPTR
?C0195:
	JNZ  	$ + 5H
	LJMP 	?C0140
;             break;
			; SOURCE LINE # 657
;         Keyright = 0xff;
			; SOURCE LINE # 658
	MOV  	DPTR,#Keyright
	MOV  	A,#0FFH
	MOVX 	@DPTR,A
;         Keyleft = 0xff;
			; SOURCE LINE # 659
	MOV  	DPTR,#Keyleft
	MOVX 	@DPTR,A
;         if (UpdateKeybd > 40000)
			; SOURCE LINE # 660
	INC  	DPTR
	LCALL	L?0256
	JC   	$ + 5H
	LJMP 	?C0145
;         {
			; SOURCE LINE # 661
;             UpdateKeybd = 0;
			; SOURCE LINE # 662
	CLR  	A
	MOV  	DPTR,#UpdateKeybd
	MOVX 	@DPTR,A
	INC  	DPTR
	MOVX 	@DPTR,A
;             Keyright = Key_Scan();
			; SOURCE LINE # 663
	LCALL	Key_Scan
	MOV  	DPTR,#Keyright
	MOV  	A,R7
	MOVX 	@DPTR,A
;             Keyleft = Key_Scan() >> 8;
			; SOURCE LINE # 664
	LCALL	Key_Scan
	MOV  	A,R6
	MOV  	DPTR,#Keyleft
	MOVX 	@DPTR,A
;             File_CurrentOffset = f_tell(&testfile);
			; SOURCE LINE # 665
	MOV  	DPTR,#testfile+011H
	LCALL	L?0220
	MOV  	R7,A
	MOV  	DPTR,#File_CurrentOffset
	LCALL	?C?LSTXDATA
;             if (Keyright == KEY_RIGHT)
			; SOURCE LINE # 666
	MOV  	DPTR,#Keyright
	MOVX 	A,@DPTR
	XRL  	A,#04AH
	JNZ  	?C0146
;             {
			; SOURCE LINE # 667
;                 if (Keyleft == KEY_SHIFT)
			; SOURCE LINE # 668
	MOV  	DPTR,#Keyleft
	MOVX 	A,@DPTR
	XRL  	A,#041H
	JNZ  	?C0147
;                 {
			; SOURCE LINE # 669
;                     Next_Flg = 1;
			; SOURCE LINE # 670
	MOV  	DPTR,#Next_Flg
;                     Play_Again_Auto = 0;
			; SOURCE LINE # 671
;                     Play_Again_Manu = 1;
			; SOURCE LINE # 672
;                     goto Again;
			; SOURCE LINE # 673
	LJMP 	?C0207
;                 }
			; SOURCE LINE # 674
?C0147:
;                 else
;                 {
			; SOURCE LINE # 676
;                     if (File_CurrentOffset + JmpLenth <= File_Size)
			; SOURCE LINE # 677
	MOV  	DPTR,#JmpLenth
	LCALL	L?0220
	MOV  	R7,A
	MOV  	DPTR,#File_CurrentOffset
	LCALL	L?0212
	LCALL	L?0284
	MOV  	R4,A
	MOV  	DPTR,#File_Size
	LCALL	L?0212
	MOV  	R3,A
	CLR  	C
	LCALL	?C?ULCMP
	JC   	?C0146
;                     {
			; SOURCE LINE # 678
;                         f_lseek(&testfile, File_CurrentOffset + JmpLenth);
			; SOURCE LINE # 679
	MOV  	DPTR,#JmpLenth
	LCALL	L?0220
	MOV  	R7,A
	MOV  	DPTR,#File_CurrentOffset
	LCALL	L?0212
	LCALL	L?0284
	LCALL	L?0265
	LCALL	_f_lseek
;                     }
			; SOURCE LINE # 680
;                 }
			; SOURCE LINE # 681
;             }
			; SOURCE LINE # 682
?C0146:
;             if (Keyright == KEY_LEFT)
			; SOURCE LINE # 683
	MOV  	DPTR,#Keyright
	MOVX 	A,@DPTR
	XRL  	A,#048H
	JNZ  	?C0150
;             {
			; SOURCE LINE # 684
;                 if (Keyleft == KEY_SHIFT)
			; SOURCE LINE # 685
	MOV  	DPTR,#Keyleft
	MOVX 	A,@DPTR
	XRL  	A,#041H
	JNZ  	?C0151
;                 {
			; SOURCE LINE # 686
;                     Prev_Flg = 1;
			; SOURCE LINE # 687
	MOV  	DPTR,#Prev_Flg
?C0207:
	INC  	A
	MOVX 	@DPTR,A
;                     Play_Again_Auto = 0;
			; SOURCE LINE # 688
	CLR  	A
	MOV  	DPTR,#Play_Again_Auto
	MOVX 	@DPTR,A
;                     Play_Again_Manu = 1;
			; SOURCE LINE # 689
	MOV  	DPTR,#Play_Again_Manu
	INC  	A
	MOVX 	@DPTR,A
;                     goto Again;
			; SOURCE LINE # 690
	LJMP 	?main?Again
;                 }
			; SOURCE LINE # 691
?C0151:
;                 else
;                 {
			; SOURCE LINE # 693
;                     if (File_CurrentOffset >= 2 * JmpLenth)
			; SOURCE LINE # 694
	LCALL	L?0288
	LCALL	L?0212
	MOV  	R3,A
	LCALL	?C?LMUL
	MOV  	DPTR,#File_CurrentOffset
	LCALL	L?0212
	MOV  	R3,A
	CLR  	C
	LCALL	?C?ULCMP
	JC   	?C0150
;                     {
			; SOURCE LINE # 695
;                         f_lseek(&testfile, File_CurrentOffset - 2 * JmpLenth);
			; SOURCE LINE # 696
	LCALL	L?0288
	LCALL	L?0212
	MOV  	R3,A
	LCALL	?C?LMUL
	LCALL	L?0267
	MOV  	DPTR,#File_CurrentOffset
	LCALL	L?0220
	CLR  	C
	SUBB 	A,R3
	MOV  	R7,A
	MOV  	A,R6
	SUBB 	A,R2
	MOV  	R6,A
	MOV  	A,R5
	SUBB 	A,R1
	MOV  	R5,A
	MOV  	A,R4
	SUBB 	A,R0
	LCALL	L?0265
	LCALL	_f_lseek
;                     }
			; SOURCE LINE # 697
;                 }
			; SOURCE LINE # 698
;             }
			; SOURCE LINE # 699
?C0150:
;             if (Keyright == KEY_UP)
			; SOURCE LINE # 700
	MOV  	DPTR,#Keyright
	MOVX 	A,@DPTR
	XRL  	A,#044H
	JNZ  	?C0154
;             {
			; SOURCE LINE # 701
;                 if (Vol < 20)
			; SOURCE LINE # 702
	MOV  	DPTR,#Vol
	MOVX 	A,@DPTR
	CLR  	C
	SUBB 	A,#014H
	MOV  	A,#080H
	SUBB 	A,#080H
	JNC  	?C0155
;                     Vol += 1;
			; SOURCE LINE # 703
	MOVX 	A,@DPTR
	INC  	A
	MOVX 	@DPTR,A
?C0155:
;                 OLED_ShowNum(40, 2, Vol * 10, 3, 16);
			; SOURCE LINE # 704
	LCALL	L?0221
	LCALL	L?0281
;             }
			; SOURCE LINE # 705
?C0154:
;             if (Keyright == KEY_DOWN)
			; SOURCE LINE # 706
	MOV  	DPTR,#Keyright
	MOVX 	A,@DPTR
	XRL  	A,#049H
	JNZ  	?C0156
;             {
			; SOURCE LINE # 707
;                 if (Vol >= 0)
			; SOURCE LINE # 708
	MOV  	DPTR,#Vol
	CLR  	C
	MOV  	A,#080H
	SUBB 	A,#080H
	JC   	?C0157
;                     Vol -= 1;
			; SOURCE LINE # 709
	MOVX 	A,@DPTR
	DEC  	A
	MOVX 	@DPTR,A
?C0157:
;                 OLED_ShowNum(40, 2, Vol * 10, 3, 16);
			; SOURCE LINE # 710
	LCALL	L?0221
	LCALL	L?0281
;             }
			; SOURCE LINE # 711
?C0156:
;             if (Keyleft == KEY_BACK)
			; SOURCE LINE # 712
	MOV  	DPTR,#Keyleft
	MOVX 	A,@DPTR
	XRL  	A,#045H
	JNZ  	$ + 5H
	LJMP 	?main?Menu
;             {
			; SOURCE LINE # 713
;                 goto Menu;
			; SOURCE LINE # 714
;             }
			; SOURCE LINE # 715
;             if (Keyright == KEY_EQUAL)
			; SOURCE LINE # 716
	MOV  	DPTR,#Keyright
	MOVX 	A,@DPTR
	XRL  	A,#03DH
	JNZ  	?C0145
;             {
			; SOURCE LINE # 717
?C0160:
;                 while (Key_Scan() != 0xffff)
			; SOURCE LINE # 718
	LCALL	Key_Scan
	CJNE 	R6,#0FFH,?C0160
	CJNE 	R7,#0FFH,?C0160
;                     ;
;                 OLED_Printf(0, 6, 16, "     Pause       ");
			; SOURCE LINE # 720
	LCALL	L?0278
	MOV  	A,#HIGH (?SC_100)
	MOVX 	@DPTR,A
	INC  	DPTR
	MOV  	A,#LOW (?SC_100)
	MOVX 	@DPTR,A
	MOV  	R3,#010H
	MOV  	R5,#06H
	CLR  	A
	MOV  	R7,A
	LCALL	_OLED_Printf
;                 EA = 0;
			; SOURCE LINE # 721
	CLR  	EA
?C0162:
;                 while (1)
			; SOURCE LINE # 722
;                 {
			; SOURCE LINE # 723
;                     Delay100ms();
			; SOURCE LINE # 724
	LCALL	Delay100ms
;                     Keyright = Key_Scan();
			; SOURCE LINE # 725
	LCALL	Key_Scan
	MOV  	DPTR,#Keyright
	MOV  	A,R7
	MOVX 	@DPTR,A
;                     if (Keyright == KEY_EQUAL)
			; SOURCE LINE # 726
	XRL  	A,#03DH
	JNZ  	?C0162
;                         break;
			; SOURCE LINE # 727
;                 }
			; SOURCE LINE # 728
?C0163:
;                 OLED_ShowNum(40, 6, Minute / 10, 1, 16);
			; SOURCE LINE # 729
;                 OLED_ShowNum(48, 6, Minute % 10, 1, 16);
			; SOURCE LINE # 730
;                 OLED_ShowChar(56, 6, ':', 16);
			; SOURCE LINE # 731
;                 OLED_ShowNum(64, 6, Second / 10, 1, 16);
			; SOURCE LINE # 732
;                 OLED_ShowNum(72, 6, Second % 10, 1, 16);
			; SOURCE LINE # 733
	LCALL	L?0208
	MOV  	R7,#048H
	LCALL	_OLED_ShowNum
;                 EA = 1;
			; SOURCE LINE # 734
	SETB 	EA
;             }
			; SOURCE LINE # 735
;         }
			; SOURCE LINE # 736
?C0145:
;         if (UpdateInfo > 40000)
			; SOURCE LINE # 737
	MOV  	DPTR,#UpdateInfo
	LCALL	L?0256
	JC   	$ + 5H
	LJMP 	?C0165
;         {
			; SOURCE LINE # 738
;             UpdateInfo = 0;
			; SOURCE LINE # 739
	CLR  	A
	MOV  	DPTR,#UpdateInfo
	MOVX 	@DPTR,A
	INC  	DPTR
	MOVX 	@DPTR,A
;             OLED_ShowString(0, 2, "Vol:", 16);
			; SOURCE LINE # 740
	MOV  	R3,#0FFH
	MOV  	R2,#HIGH (?SC_118)
	MOV  	R1,#LOW (?SC_118)
	LCALL	L?0255
	MOV  	R5,#02H
	CLR  	A
	MOV  	R7,A
	LCALL	_OLED_ShowString
;             OLED_ShowNum(40, 2, Vol * 10, 3, 16);
			; SOURCE LINE # 741
	LCALL	L?0222
	MOV  	R5,#02H
	MOV  	R7,#028H
	LCALL	_OLED_ShowNum
;             OLED_ShowString(72, 2, "%", 16);
			; SOURCE LINE # 742
	MOV  	R3,#0FFH
	MOV  	R2,#HIGH (?SC_123)
	MOV  	R1,#LOW (?SC_123)
	LCALL	L?0255
	MOV  	R5,#02H
	MOV  	R7,#048H
	LCALL	_OLED_ShowString
;             Process = (float)(File_CurrentOffset - sizeof(Wave_FHD)) / (float)File_Size;
			; SOURCE LINE # 743
	MOV  	DPTR,#File_CurrentOffset
	LCALL	L?0220
	LCALL	L?0240
	CLR  	A
	LCALL	?C?FCASTL
	PUSH 	AR4
	PUSH 	AR5
	PUSH 	AR6
	PUSH 	AR7
	LCALL	L?0219
	MOV  	R7,A
	CLR  	A
	LCALL	?C?FCASTL
	LCALL	L?0267
	POP  	AR7
	POP  	AR6
	POP  	AR5
	POP  	AR4
	LCALL	?C?FPDIV
	MOV  	DPTR,#Process
	LCALL	?C?LSTXDATA
;             for (i = 0; i < 16; i++)
			; SOURCE LINE # 744
	CLR  	A
	MOV  	DPTR,#i
	MOVX 	@DPTR,A
	INC  	DPTR
	MOVX 	@DPTR,A
?C0166:
;             {
			; SOURCE LINE # 745
;                 if (i < 16 * Process)
			; SOURCE LINE # 746
	CLR  	A
	MOV  	R7,A
	MOV  	R6,A
	MOV  	R5,#080H
	MOV  	R4,#041H
	MOV  	DPTR,#Process
	LCALL	L?0212
	MOV  	R3,A
	LCALL	?C?FPMUL
	PUSH 	AR4
	PUSH 	AR5
	PUSH 	AR6
	PUSH 	AR7
	MOV  	DPTR,#i
	MOVX 	A,@DPTR
	MOV  	R4,A
	INC  	DPTR
	MOVX 	A,@DPTR
	MOV  	R5,A
	MOV  	A,R4
	LCALL	?C?FCASTI
	LCALL	L?0268
	POP  	AR7
	POP  	AR6
	POP  	AR5
	POP  	AR4
	LCALL	?C?FPCMP3
	MOV  	DPTR,#i
	JNC  	?C0169
;                     OLED_ShowChar(i * 8, 4, '#', 16);
			; SOURCE LINE # 747
	LCALL	L?0269
	MOV  	R3,#023H
	SJMP 	?C0203
?C0169:
;                 else
;                     OLED_ShowChar(i * 8, 4, ' ', 16);
			; SOURCE LINE # 749
	LCALL	L?0269
	MOV  	R3,#020H
?C0203:
	MOV  	R5,#04H
	LCALL	_OLED_ShowChar
;             }
			; SOURCE LINE # 750
?C0168:
	MOV  	DPTR,#i+01H
	MOVX 	A,@DPTR
	INC  	A
	MOVX 	@DPTR,A
	JNZ  	?C0196
	MOV  	DPTR,#i
	MOVX 	A,@DPTR
	INC  	A
	MOVX 	@DPTR,A
?C0196:
	CLR  	C
	MOV  	DPTR,#i+01H
	MOVX 	A,@DPTR
	SUBB 	A,#010H
	MOV  	DPTR,#i
	MOVX 	A,@DPTR
	XRL  	A,#080H
	SUBB 	A,#080H
	JC   	?C0166
?C0167:
;             Second = (u8)(PlayTime * Process) % 60;
			; SOURCE LINE # 751
	MOV  	DPTR,#PlayTime
	LCALL	L?0220
	MOV  	R7,A
	CLR  	A
	LCALL	?C?FCASTL
	MOV  	DPTR,#Process
	LCALL	L?0212
	MOV  	R3,A
	LCALL	?C?FPMUL
	LCALL	?C?CASTF
	MOV  	A,R7
	MOV  	B,#03CH
	DIV  	AB
	MOV  	R6,B
	MOV  	DPTR,#Second
	MOV  	A,R6
	MOVX 	@DPTR,A
;             Minute = (u8)(PlayTime * Process) / 60;
			; SOURCE LINE # 752
	MOV  	A,R7
	MOV  	B,#03CH
	DIV  	AB
	MOV  	DPTR,#Minute
	MOVX 	@DPTR,A
;             OLED_ShowNum(64, 6, Second / 10, 1, 16);
			; SOURCE LINE # 753
	MOV  	A,R6
	MOV  	B,#0AH
	DIV  	AB
	MOV  	R7,A
	CLR  	A
	MOV  	R4,A
	MOV  	R5,A
	MOV  	R6,A
	MOV  	DPTR,#?_OLED_ShowNum?BYTE+02H
	LCALL	?C?LSTXDATA
	MOV  	A,#01H
	LCALL	L?0223
	MOV  	R5,#06H
	MOV  	R7,#040H
	LCALL	_OLED_ShowNum
;             OLED_ShowNum(72, 6, Second % 10, 1, 16);
			; SOURCE LINE # 754
	MOV  	DPTR,#Second
	LCALL	L?0229
	MOV  	R7,#048H
	LCALL	_OLED_ShowNum
;             if (tmp != Minute)
			; SOURCE LINE # 755
	MOV  	DPTR,#Minute
	MOVX 	A,@DPTR
	MOV  	R7,A
	MOV  	DPTR,#tmp
	MOVX 	A,@DPTR
	XRL  	A,R7
	JZ   	?C0165
;             {
			; SOURCE LINE # 756
;                 tmp = Minute;
			; SOURCE LINE # 757
	MOV  	DPTR,#Minute
	MOVX 	A,@DPTR
	MOV  	DPTR,#tmp
	MOVX 	@DPTR,A
;                 OLED_ShowNum(40, 6, Minute / 10, 1, 16);
			; SOURCE LINE # 758
	MOV  	B,#0AH
	DIV  	AB
	MOV  	R7,A
	LCALL	L?0230
	MOV  	R7,#028H
	LCALL	_OLED_ShowNum
;                 OLED_ShowNum(48, 6, Minute % 10, 1, 16);
			; SOURCE LINE # 759
	MOV  	DPTR,#Minute
	LCALL	L?0229
	MOV  	R7,#030H
	LCALL	_OLED_ShowNum
;             }
			; SOURCE LINE # 760
;         }
			; SOURCE LINE # 761
?C0165:
;         UpdateInfo++;
			; SOURCE LINE # 762
	MOV  	DPTR,#UpdateInfo+01H
	MOVX 	A,@DPTR
	INC  	A
	MOVX 	@DPTR,A
	JNZ  	?C0197
	MOV  	DPTR,#UpdateInfo
	MOVX 	A,@DPTR
	INC  	A
	MOVX 	@DPTR,A
?C0197:
;         UpdateKeybd++;
			; SOURCE LINE # 763
	MOV  	DPTR,#UpdateKeybd+01H
	MOVX 	A,@DPTR
	INC  	A
	MOVX 	@DPTR,A
	JNZ  	?C0198
	MOV  	DPTR,#UpdateKeybd
	MOVX 	A,@DPTR
	INC  	A
	MOVX 	@DPTR,A
?C0198:
;     }
			; SOURCE LINE # 764
	LJMP 	?C0139
?C0140:
;     EA = 0;
			; SOURCE LINE # 765
	CLR  	EA
;     Play_Again_Auto = 1;
			; SOURCE LINE # 766
	MOV  	DPTR,#Play_Again_Auto
	MOV  	A,#01H
	MOVX 	@DPTR,A
;     Play_Again_Manu = 0;
			; SOURCE LINE # 767
	CLR  	A
	MOV  	DPTR,#Play_Again_Manu
	MOVX 	@DPTR,A
;     goto Again;
			; SOURCE LINE # 768
	LJMP 	?main?Again
L?0208:
	MOV  	DPTR,#Minute
	MOVX 	A,@DPTR
	MOV  	B,#0AH
	DIV  	AB
	MOV  	R7,A
	CLR  	A
	MOV  	R4,A
	MOV  	R5,A
	MOV  	R6,A
	MOV  	DPTR,#?_OLED_ShowNum?BYTE+02H
	LCALL	?C?LSTXDATA
	MOV  	DPTR,#?_OLED_ShowNum?BYTE+06H
	MOV  	A,#01H
	MOVX 	@DPTR,A
	INC  	DPTR
	MOV  	A,#010H
	MOVX 	@DPTR,A
	MOV  	R5,#06H
	MOV  	R7,#028H
	LCALL	_OLED_ShowNum
	MOV  	DPTR,#Minute
	MOVX 	A,@DPTR
	MOV  	B,#0AH
	DIV  	AB
	MOV  	R7,B
	CLR  	A
	MOV  	R4,A
	MOV  	R5,A
	MOV  	R6,A
	MOV  	DPTR,#?_OLED_ShowNum?BYTE+02H
	LCALL	?C?LSTXDATA
	MOV  	DPTR,#?_OLED_ShowNum?BYTE+06H
	MOV  	A,#01H
	MOVX 	@DPTR,A
	INC  	DPTR
	MOV  	A,#010H
	MOVX 	@DPTR,A
	MOV  	R5,#06H
	MOV  	R7,#030H
	LCALL	_OLED_ShowNum
	MOV  	DPTR,#?_OLED_ShowChar?BYTE+03H
	MOV  	A,#010H
	MOVX 	@DPTR,A
	MOV  	R3,#03AH
	MOV  	R5,#06H
	MOV  	R7,#038H
	LCALL	_OLED_ShowChar
	MOV  	DPTR,#Second
	MOVX 	A,@DPTR
	MOV  	B,#0AH
	DIV  	AB
	MOV  	R7,A
	CLR  	A
	MOV  	R4,A
	MOV  	R5,A
	MOV  	R6,A
	MOV  	DPTR,#?_OLED_ShowNum?BYTE+02H
	LCALL	?C?LSTXDATA
	MOV  	DPTR,#?_OLED_ShowNum?BYTE+06H
	MOV  	A,#01H
	MOVX 	@DPTR,A
	INC  	DPTR
	MOV  	A,#010H
	MOVX 	@DPTR,A
	MOV  	R5,#06H
	MOV  	R7,#040H
	LCALL	_OLED_ShowNum
	MOV  	DPTR,#Second
	MOVX 	A,@DPTR
	MOV  	B,#0AH
	DIV  	AB
	MOV  	R7,B
	CLR  	A
	MOV  	R4,A
	MOV  	R5,A
	MOV  	R6,A
	MOV  	DPTR,#?_OLED_ShowNum?BYTE+02H
	LCALL	?C?LSTXDATA
	MOV  	DPTR,#?_OLED_ShowNum?BYTE+06H
	MOV  	A,#01H
	MOVX 	@DPTR,A
	INC  	DPTR
	MOV  	A,#010H
	MOVX 	@DPTR,A
	MOV  	R5,#06H
	RET  	
L?0214:
	MOV  	R3,#01H
	MOV  	R2,#HIGH (wav_file)
	MOV  	R1,#LOW (wav_file)
	CLR  	A
	MOV  	DPTR,#?___memset?BYTE+04H
	MOVX 	@DPTR,A
	MOV  	R5,#0FFH
	LCALL	___memset
	MOV  	R3,#01H
	MOV  	R2,#HIGH (wav_file+0100H)
	MOV  	R1,#LOW (wav_file+0100H)
	CLR  	A
	MOV  	DPTR,#?___memset?BYTE+04H
	MOVX 	@DPTR,A
	MOV  	R5,#0EH
	LCALL	___memset
	CLR  	A
	MOV  	DPTR,#wav_file+010EH
	MOVX 	@DPTR,A
	MOV  	DPTR,#k
	MOVX 	A,@DPTR
	MOV  	R5,A
	MOV  	DPTR,#?_Get_Nth?BYTE+04H
	MOV  	A,#01H
	MOVX 	@DPTR,A
	INC  	DPTR
	MOV  	A,#HIGH (wav_file)
	MOVX 	@DPTR,A
	INC  	DPTR
	MOV  	A,#LOW (wav_file)
	MOVX 	@DPTR,A
	INC  	DPTR
	MOV  	A,#01H
	MOVX 	@DPTR,A
	INC  	DPTR
	MOV  	A,#HIGH (wav_file+0100H)
	MOVX 	@DPTR,A
	INC  	DPTR
	MOV  	A,#LOW (wav_file+0100H)
	MOVX 	@DPTR,A
	MOV  	R3,#0FFH
	MOV  	R2,#HIGH (?SC_18)
	MOV  	R1,#LOW (?SC_18)
	LCALL	_Get_Nth
	MOV  	R3,#01H
	MOV  	R2,#HIGH (wav_file)
	MOV  	R1,#LOW (wav_file)
	RET  	
L?0241:
	INC  	DPTR
	INC  	A
	MOVX 	@DPTR,A
	INC  	DPTR
	MOV  	A,#HIGH (rn)
	MOVX 	@DPTR,A
	INC  	DPTR
	MOV  	A,#LOW (rn)
	MOVX 	@DPTR,A
	MOV  	R2,#HIGH (testfile)
	MOV  	R1,#LOW (testfile)
	LCALL	_f_read
	MOV  	DPTR,#res1
	MOV  	A,R7
	MOVX 	@DPTR,A
	RET  	
L?0242:
	MOVX 	A,@DPTR
	MOV  	DPTR,#?_OLED_Printf?BYTE+06H
	MOVX 	@DPTR,A
	MOV  	R3,#010H
	CLR  	A
	MOV  	R5,A
	MOV  	R7,A
	LCALL	_OLED_Printf
	RET  	
L?0281:
	MOV  	R5,#02H
	MOV  	R7,#028H
	LCALL	_OLED_ShowNum
	RET  	
; END OF main

CSEG	AT	0001BH
	LJMP	timer0_ISR

;     while (1)
;         ;
; }
; //
; uint16_t pcm16 = 0;
; void timer0_ISR(void) interrupt 3

	RSEG  ?PR?timer0_ISR?MAIN
	USING	0
timer0_ISR:
	PUSH 	ACC
	PUSH 	DPH
	PUSH 	DPL
	PUSH 	PSW
	MOV  	PSW,#00H
	PUSH 	AR4
	PUSH 	AR5
	PUSH 	AR6
	PUSH 	AR7
	USING	0
			; SOURCE LINE # 774
; {
; 
;     pcm16 = 0;
			; SOURCE LINE # 777
	MOV  	DPTR,#pcm16
	CLR  	A
;     if (B_Play)
			; SOURCE LINE # 778
	LCALL	L?0273
	MOVX 	A,@DPTR
	JNZ  	$ + 5H
	LJMP 	?C0186
;     {
			; SOURCE LINE # 779
;         if (bflg == 0)
			; SOURCE LINE # 780
	MOV  	DPTR,#bflg
	MOVX 	A,@DPTR
	JNZ  	?C0176
;         {
			; SOURCE LINE # 781
;             
;             if (BytePerSample == 2)
			; SOURCE LINE # 783
	LCALL	L?0289
	JNZ  	?C0177
;             {
			; SOURCE LINE # 784
;                 PWMB_CCR2L = Volume[Vol][(u8)(MusicBuffer0[Cnt + 1]) + 128];
			; SOURCE LINE # 785
	LCALL	L?0257
	LCALL	L?0290
	PUSH 	DPH
	PUSH 	DPL
	LCALL	L?0260
	ADD  	A,#LOW (MusicBuffer0+01H)
	MOV  	DPL,A
	MOV  	A,#HIGH (MusicBuffer0+01H)
	ADDC 	A,R6
	MOV  	DPH,A
	MOVX 	A,@DPTR
	POP  	DPL
	POP  	DPH
;                 Cnt += 2;
			; SOURCE LINE # 786
	LCALL	L?0227
	LCALL	L?0285
;                 
;             }
			; SOURCE LINE # 788
	SJMP 	?C0178
?C0177:
;             else if (BytePerSample == 1)
			; SOURCE LINE # 789
	MOV  	A,R5
	XRL  	A,#01H
	ORL  	A,R4
	JNZ  	?C0178
;             {
			; SOURCE LINE # 790
;                 PWMB_CCR2L = Volume[Vol][(u8)(MusicBuffer0[Cnt])];
			; SOURCE LINE # 791
	LCALL	L?0257
	LCALL	L?0291
	PUSH 	DPH
	PUSH 	DPL
	LCALL	L?0260
	ADD  	A,#LOW (MusicBuffer0)
	MOV  	DPL,A
	MOV  	A,#HIGH (MusicBuffer0)
	ADDC 	A,R6
	MOV  	DPH,A
	MOVX 	A,@DPTR
	POP  	DPL
	POP  	DPH
;                 Cnt += 1;
			; SOURCE LINE # 792
	LCALL	L?0227
	INC  	A
	MOVX 	@DPTR,A
	JNZ  	?C0199
	MOV  	DPTR,#Cnt
	MOVX 	A,@DPTR
	INC  	A
	MOVX 	@DPTR,A
?C0199:
;             }
			; SOURCE LINE # 793
?C0178:
;             if (Cnt >= MusicBufferSize)
			; SOURCE LINE # 794
	CLR  	C
	MOV  	DPTR,#Cnt
	MOVX 	A,@DPTR
	SUBB 	A,#02H
	JC   	?C0176
;             {
			; SOURCE LINE # 795
;                 B_Play = 0;
			; SOURCE LINE # 796
	MOV  	DPTR,#B_Play
	CLR  	A
	MOVX 	@DPTR,A
;             }
			; SOURCE LINE # 797
;         }
			; SOURCE LINE # 798
?C0176:
;         if (bflg == 1)
			; SOURCE LINE # 799
	MOV  	DPTR,#bflg
	MOVX 	A,@DPTR
	XRL  	A,#01H
	JNZ  	?C0186
;         {
			; SOURCE LINE # 800
;             
;             if (BytePerSample == 2)
			; SOURCE LINE # 802
	LCALL	L?0289
	JNZ  	?C0182
;             {
			; SOURCE LINE # 803
;                 PWMB_CCR2L = Volume[Vol][(u8)(MusicBuffer1[Cnt + 1]) +128 ];
			; SOURCE LINE # 804
	LCALL	L?0258
	LCALL	L?0290
	PUSH 	DPH
	PUSH 	DPL
	LCALL	L?0261
	ADD  	A,#LOW (MusicBuffer1+01H)
	MOV  	DPL,A
	MOV  	A,#HIGH (MusicBuffer1+01H)
	ADDC 	A,R6
	MOV  	DPH,A
	MOVX 	A,@DPTR
	POP  	DPL
	POP  	DPH
;                 Cnt += 2;
			; SOURCE LINE # 805
	LCALL	L?0228
	LCALL	L?0285
;             }
			; SOURCE LINE # 806
	SJMP 	?C0183
?C0182:
;             else if (BytePerSample == 1)
			; SOURCE LINE # 807
	MOV  	A,R5
	XRL  	A,#01H
	ORL  	A,R4
	JNZ  	?C0183
;             {
			; SOURCE LINE # 808
;                 PWMB_CCR2L = Volume[Vol][(u8)(MusicBuffer1[Cnt])];
			; SOURCE LINE # 809
	LCALL	L?0258
	LCALL	L?0291
	PUSH 	DPH
	PUSH 	DPL
	LCALL	L?0261
	ADD  	A,#LOW (MusicBuffer1)
	MOV  	DPL,A
	MOV  	A,#HIGH (MusicBuffer1)
	ADDC 	A,R6
	MOV  	DPH,A
	MOVX 	A,@DPTR
	POP  	DPL
	POP  	DPH
;                 Cnt += 1;
			; SOURCE LINE # 810
	LCALL	L?0228
	INC  	A
	MOVX 	@DPTR,A
	JNZ  	?C0200
	MOV  	DPTR,#Cnt
	MOVX 	A,@DPTR
	INC  	A
	MOVX 	@DPTR,A
?C0200:
;             }
			; SOURCE LINE # 811
?C0183:
;             if (Cnt >= MusicBufferSize)
			; SOURCE LINE # 812
	CLR  	C
	MOV  	DPTR,#Cnt
	MOVX 	A,@DPTR
	SUBB 	A,#02H
	JC   	?C0186
;             {
			; SOURCE LINE # 813
;                 B_Play = 0;
			; SOURCE LINE # 814
	MOV  	DPTR,#B_Play
	CLR  	A
	MOVX 	@DPTR,A
;             }
			; SOURCE LINE # 815
;         }
			; SOURCE LINE # 816
;     }
			; SOURCE LINE # 817
; }
			; SOURCE LINE # 818
?C0186:
	POP  	AR7
	POP  	AR6
	POP  	AR5
	POP  	AR4
	POP  	PSW
	POP  	DPL
	POP  	DPH
	POP  	ACC
	RETI 	
; END OF timer0_ISR

	END
